;--------------------------------------------------------
; File Created by SDCC : free open source ANSI-C Compiler
; Version 3.5.0 #9253 (Jun 20 2015) (MINGW32)
; This file was generated Sat Feb 15 14:52:32 2020
;--------------------------------------------------------
; PIC port for the 14-bit core
;--------------------------------------------------------
	.file	"SSD.c"
	list	p=16f877a
	radix dec
	include "p16f877a.inc"
;--------------------------------------------------------
; external declarations
;--------------------------------------------------------
	extern	_TMR_Init
	extern	_TMR_Start
	extern	_TMR_CheckOverFlow
	extern	_TMR_Stop
	extern	_TMR_Update
	extern	_STATUSbits
	extern	_PORTAbits
	extern	_PORTBbits
	extern	_PORTCbits
	extern	_PORTDbits
	extern	_PORTEbits
	extern	_INTCONbits
	extern	_PIR1bits
	extern	_PIR2bits
	extern	_T1CONbits
	extern	_T2CONbits
	extern	_SSPCONbits
	extern	_CCP1CONbits
	extern	_RCSTAbits
	extern	_CCP2CONbits
	extern	_ADCON0bits
	extern	_OPTION_REGbits
	extern	_TRISAbits
	extern	_TRISBbits
	extern	_TRISCbits
	extern	_TRISDbits
	extern	_TRISEbits
	extern	_PIE1bits
	extern	_PIE2bits
	extern	_PCONbits
	extern	_SSPCON2bits
	extern	_SSPSTATbits
	extern	_TXSTAbits
	extern	_CMCONbits
	extern	_CVRCONbits
	extern	_ADCON1bits
	extern	_EECON1bits
	extern	_INDF
	extern	_TMR0
	extern	_PCL
	extern	_STATUS
	extern	_FSR
	extern	_PORTA
	extern	_PORTB
	extern	_PORTC
	extern	_PORTD
	extern	_PORTE
	extern	_PCLATH
	extern	_INTCON
	extern	_PIR1
	extern	_PIR2
	extern	_TMR1
	extern	_TMR1L
	extern	_TMR1H
	extern	_T1CON
	extern	_TMR2
	extern	_T2CON
	extern	_SSPBUF
	extern	_SSPCON
	extern	_CCPR1
	extern	_CCPR1L
	extern	_CCPR1H
	extern	_CCP1CON
	extern	_RCSTA
	extern	_TXREG
	extern	_RCREG
	extern	_CCPR2
	extern	_CCPR2L
	extern	_CCPR2H
	extern	_CCP2CON
	extern	_ADRESH
	extern	_ADCON0
	extern	_OPTION_REG
	extern	_TRISA
	extern	_TRISB
	extern	_TRISC
	extern	_TRISD
	extern	_TRISE
	extern	_PIE1
	extern	_PIE2
	extern	_PCON
	extern	_SSPCON2
	extern	_PR2
	extern	_SSPADD
	extern	_SSPSTAT
	extern	_TXSTA
	extern	_SPBRG
	extern	_CMCON
	extern	_CVRCON
	extern	_ADRESL
	extern	_ADCON1
	extern	_EEDATA
	extern	_EEADR
	extern	_EEDATH
	extern	_EEADRH
	extern	_EECON1
	extern	_EECON2

	extern PSAVE
	extern SSAVE
	extern WSAVE
	extern STK12
	extern STK11
	extern STK10
	extern STK09
	extern STK08
	extern STK07
	extern STK06
	extern STK05
	extern STK04
	extern STK03
	extern STK02
	extern STK01
	extern STK00
;--------------------------------------------------------
; global declarations
;--------------------------------------------------------
	global	_SSD_SetDotState
	global	_SSD_SetState
	global	_SSD_GetState
	global	_SSD_SetValue
	global	_SSD_GetValue
	global	_SSD_Update
	global	_SSD_Init

;--------------------------------------------------------
; global definitions
;--------------------------------------------------------
;--------------------------------------------------------
; absolute symbol definitions
;--------------------------------------------------------
;--------------------------------------------------------
; compiler-defined variables
;--------------------------------------------------------
UDL_SSD_0	udata
r0x1025	res	1
r0x1026	res	1
r0x1022	res	1
r0x1023	res	1
r0x101F	res	1
r0x1020	res	1
r0x101C	res	1
r0x101D	res	1
r0x101E	res	1
r0x101A	res	1
r0x101B	res	1
r0x1013	res	1
r0x1014	res	1
r0x1015	res	1
r0x1016	res	1
r0x1017	res	1
r0x1018	res	1
r0x1019	res	1
_SSD_Update_SSD_counter_1_18	res	2
;--------------------------------------------------------
; initialized data
;--------------------------------------------------------

ID_SSD_0	idata
_SSD_Data
	db	0x3f
	db	0x06
	db	0x5b
	db	0x4f
	db	0x66
	db	0x6d
	db	0x7d
	db	0x07
	db	0x7f
	db	0x6f
	db	0x00


ID_SSD_1	idata
_SSD_current
	db	0x00


ID_SSD_2	idata
_SSD_Values
	db	0x0a
	db	0x00
	db	0x00
	db	0x00


ID_SSD_3	idata
_SSD_DotState
	db	0x00

;--------------------------------------------------------
; overlayable items in internal ram 
;--------------------------------------------------------
;	udata_ovr
;--------------------------------------------------------
; code
;--------------------------------------------------------
code_SSD	code
;***
;  pBlock Stats: dbName = C
;***
;entry:  _SSD_Out	;Function start
; 2 exit points
;has an exit
;functions called:
;   _SSD_SetState
;   _SSD_SetState
;   _SSD_SetState
;   _SSD_SetState
;   _SSD_SetState
;   _SSD_SetState
;   _SSD_SetState
;   _SSD_SetState
;   _SSD_SetState
;   _SSD_SetState
;4 compiler assigned registers:
;   r0x1017
;   STK00
;   r0x1018
;   r0x1019
;; Starting pCode block
;;; /home/sdcc-builder/build/sdcc-build/orig/sdcc/src/pic14/gen.c:2316:resultRemat *{*
;;; /home/sdcc-builder/build/sdcc-build/orig/sdcc/src/pic14/gen.c:2760:genLabel *{*
;; ***	genLabel  2763
;;; /home/sdcc-builder/build/sdcc-build/orig/sdcc/src/pic14/gen.c:2316:resultRemat *{*
;;; /home/sdcc-builder/build/sdcc-build/orig/sdcc/src/pic14/gen.c:2340:genFunction *{*
;; ***	genFunction  2342 curr label offset=81previous max_key=0 
_SSD_Out	;Function start
; 2 exit points
;;; /home/sdcc-builder/build/sdcc-build/orig/sdcc/src/pic14/gen.c:2316:resultRemat *{*
;;; /home/sdcc-builder/build/sdcc-build/orig/sdcc/src/pic14/gen.c:7358:genReceive *{*
;; ***	genReceive  7359
;;	694 register type nRegs=1
;;; /home/sdcc-builder/build/sdcc-build/orig/sdcc/src/pic14/gen.c:1907:assignResultValue *{*
;; ***	assignResultValue  1909
;; 	line = 1911 result -=-, size=0, left AOP_REG=r0x105E, size=1, right -=-, size=0
;; >>> /home/sdcc-builder/build/sdcc-build/orig/sdcc/src/pic14/gen.c:1393:movwf
;;	1109 rIdx = r0x105E 
	.line	169; "SSD.c"	static  void SSD_Out(tSSD ssd, tSSD_Symbol ssd_symbol)
	BANKSEL	r0x1017
	MOVWF	r0x1017
;;; /home/sdcc-builder/build/sdcc-build/orig/sdcc/src/pic14/gen.c:2316:resultRemat *{*
;;; /home/sdcc-builder/build/sdcc-build/orig/sdcc/src/pic14/gen.c:7358:genReceive *{*
;; ***	genReceive  7359
;;	694 register type nRegs=1
;;; /home/sdcc-builder/build/sdcc-build/orig/sdcc/src/pic14/gen.c:1907:assignResultValue *{*
;; ***	assignResultValue  1909
;; 	line = 1911 result -=-, size=0, left AOP_REG=r0x105F, size=1, right -=-, size=0
;; >>> /home/sdcc-builder/build/sdcc-build/orig/sdcc/src/pic14/gen.c:1423:get_returnvalue
;; ***	popRegFromIdx,1042  , rIdx=0x7f
	MOVF	STK00,W
;; >>> /home/sdcc-builder/build/sdcc-build/orig/sdcc/src/pic14/gen.c:1393:movwf
;;	1109 rIdx = r0x105F 
	MOVWF	r0x1018
;;; /home/sdcc-builder/build/sdcc-build/orig/sdcc/src/pic14/gen.c:2316:resultRemat *{*
;;; /home/sdcc-builder/build/sdcc-build/orig/sdcc/src/pic14/gen.c:2316:resultRemat *{*
;;; /home/sdcc-builder/build/sdcc-build/orig/sdcc/src/pic14/gen.c:2316:resultRemat *{*
;;; /home/sdcc-builder/build/sdcc-build/orig/sdcc/src/pic14/gen.c:2086:genCall *{*
;; ***	genCall  2088
;;; /home/sdcc-builder/build/sdcc-build/orig/sdcc/src/pic14/gen.c:1801:saveRegisters *{*
;; ***	saveRegisters  1803
;; 	2135 left AOP_LIT
;;; /home/sdcc-builder/build/sdcc-build/orig/sdcc/src/pic14/gen.c:1343:mov2w_op *{*
;; >>> /home/sdcc-builder/build/sdcc-build/orig/sdcc/src/pic14/gen.c:1361:mov2w_op
	.line	173; "SSD.c"	SSD_SetState(SSD_MINUTES_UNITS, SSD_OFF);
	MOVLW	0x00
;; 	2135 left AOP_LIT
;; >>> /home/sdcc-builder/build/sdcc-build/orig/sdcc/src/pic14/gen.c:2143:genCall
;; ***	popRegFromIdx,1042  , rIdx=0x7f
	MOVWF	STK00
;;; /home/sdcc-builder/build/sdcc-build/orig/sdcc/src/pic14/gen.c:1343:mov2w_op *{*
;; >>> /home/sdcc-builder/build/sdcc-build/orig/sdcc/src/pic14/gen.c:1361:mov2w_op
	MOVLW	0x00
;; >>> /home/sdcc-builder/build/sdcc-build/orig/sdcc/src/pic14/gen.c:2175:genCall
	CALL	_SSD_SetState
;;; /home/sdcc-builder/build/sdcc-build/orig/sdcc/src/pic14/gen.c:1845:unsaveRegisters *{*
;; ***	unsaveRegisters  1847
;;; /home/sdcc-builder/build/sdcc-build/orig/sdcc/src/pic14/gen.c:2316:resultRemat *{*
;;; /home/sdcc-builder/build/sdcc-build/orig/sdcc/src/pic14/gen.c:2316:resultRemat *{*
;;; /home/sdcc-builder/build/sdcc-build/orig/sdcc/src/pic14/gen.c:2316:resultRemat *{*
;;; /home/sdcc-builder/build/sdcc-build/orig/sdcc/src/pic14/gen.c:2086:genCall *{*
;; ***	genCall  2088
;;; /home/sdcc-builder/build/sdcc-build/orig/sdcc/src/pic14/gen.c:1801:saveRegisters *{*
;; ***	saveRegisters  1803
;; 	2135 left AOP_LIT
;;; /home/sdcc-builder/build/sdcc-build/orig/sdcc/src/pic14/gen.c:1343:mov2w_op *{*
;; >>> /home/sdcc-builder/build/sdcc-build/orig/sdcc/src/pic14/gen.c:1361:mov2w_op
	.line	174; "SSD.c"	SSD_SetState(SSD_MINUTES_TENS, SSD_OFF);
	MOVLW	0x00
;; 	2135 left AOP_LIT
;; >>> /home/sdcc-builder/build/sdcc-build/orig/sdcc/src/pic14/gen.c:2143:genCall
;; ***	popRegFromIdx,1042  , rIdx=0x7f
	MOVWF	STK00
;;; /home/sdcc-builder/build/sdcc-build/orig/sdcc/src/pic14/gen.c:1343:mov2w_op *{*
;; >>> /home/sdcc-builder/build/sdcc-build/orig/sdcc/src/pic14/gen.c:1361:mov2w_op
	MOVLW	0x01
;; >>> /home/sdcc-builder/build/sdcc-build/orig/sdcc/src/pic14/gen.c:2175:genCall
	CALL	_SSD_SetState
;;; /home/sdcc-builder/build/sdcc-build/orig/sdcc/src/pic14/gen.c:1845:unsaveRegisters *{*
;; ***	unsaveRegisters  1847
;;; /home/sdcc-builder/build/sdcc-build/orig/sdcc/src/pic14/gen.c:2316:resultRemat *{*
;;; /home/sdcc-builder/build/sdcc-build/orig/sdcc/src/pic14/gen.c:2316:resultRemat *{*
;;; /home/sdcc-builder/build/sdcc-build/orig/sdcc/src/pic14/gen.c:2316:resultRemat *{*
;;; /home/sdcc-builder/build/sdcc-build/orig/sdcc/src/pic14/gen.c:2086:genCall *{*
;; ***	genCall  2088
;;; /home/sdcc-builder/build/sdcc-build/orig/sdcc/src/pic14/gen.c:1801:saveRegisters *{*
;; ***	saveRegisters  1803
;; 	2135 left AOP_LIT
;;; /home/sdcc-builder/build/sdcc-build/orig/sdcc/src/pic14/gen.c:1343:mov2w_op *{*
;; >>> /home/sdcc-builder/build/sdcc-build/orig/sdcc/src/pic14/gen.c:1361:mov2w_op
	.line	175; "SSD.c"	SSD_SetState(SSD_HOURS_UNITS, SSD_OFF);
	MOVLW	0x00
;; 	2135 left AOP_LIT
;; >>> /home/sdcc-builder/build/sdcc-build/orig/sdcc/src/pic14/gen.c:2143:genCall
;; ***	popRegFromIdx,1042  , rIdx=0x7f
	MOVWF	STK00
;;; /home/sdcc-builder/build/sdcc-build/orig/sdcc/src/pic14/gen.c:1343:mov2w_op *{*
;; >>> /home/sdcc-builder/build/sdcc-build/orig/sdcc/src/pic14/gen.c:1361:mov2w_op
	MOVLW	0x02
;; >>> /home/sdcc-builder/build/sdcc-build/orig/sdcc/src/pic14/gen.c:2175:genCall
	CALL	_SSD_SetState
;;; /home/sdcc-builder/build/sdcc-build/orig/sdcc/src/pic14/gen.c:1845:unsaveRegisters *{*
;; ***	unsaveRegisters  1847
;;; /home/sdcc-builder/build/sdcc-build/orig/sdcc/src/pic14/gen.c:2316:resultRemat *{*
;;; /home/sdcc-builder/build/sdcc-build/orig/sdcc/src/pic14/gen.c:2316:resultRemat *{*
;;; /home/sdcc-builder/build/sdcc-build/orig/sdcc/src/pic14/gen.c:2316:resultRemat *{*
;;; /home/sdcc-builder/build/sdcc-build/orig/sdcc/src/pic14/gen.c:2086:genCall *{*
;; ***	genCall  2088
;;; /home/sdcc-builder/build/sdcc-build/orig/sdcc/src/pic14/gen.c:1801:saveRegisters *{*
;; ***	saveRegisters  1803
;; 	2135 left AOP_LIT
;;; /home/sdcc-builder/build/sdcc-build/orig/sdcc/src/pic14/gen.c:1343:mov2w_op *{*
;; >>> /home/sdcc-builder/build/sdcc-build/orig/sdcc/src/pic14/gen.c:1361:mov2w_op
	.line	176; "SSD.c"	SSD_SetState(SSD_HOURS_TENS, SSD_OFF);
	MOVLW	0x00
;; 	2135 left AOP_LIT
;; >>> /home/sdcc-builder/build/sdcc-build/orig/sdcc/src/pic14/gen.c:2143:genCall
;; ***	popRegFromIdx,1042  , rIdx=0x7f
	MOVWF	STK00
;;; /home/sdcc-builder/build/sdcc-build/orig/sdcc/src/pic14/gen.c:1343:mov2w_op *{*
;; >>> /home/sdcc-builder/build/sdcc-build/orig/sdcc/src/pic14/gen.c:1361:mov2w_op
	MOVLW	0x03
;; >>> /home/sdcc-builder/build/sdcc-build/orig/sdcc/src/pic14/gen.c:2175:genCall
	CALL	_SSD_SetState
;;; /home/sdcc-builder/build/sdcc-build/orig/sdcc/src/pic14/gen.c:1845:unsaveRegisters *{*
;; ***	unsaveRegisters  1847
;;; /home/sdcc-builder/build/sdcc-build/orig/sdcc/src/pic14/gen.c:2316:resultRemat *{*
;;; /home/sdcc-builder/build/sdcc-build/orig/sdcc/src/pic14/gen.c:2316:resultRemat *{*
;; ***	genPlus  611
;;; /home/sdcc-builder/build/sdcc-build/orig/sdcc/src/pic14/genarith.c:612:genPlus *{*
;;	613
;;	aopForRemat 392
;;	418: rname _SSD_Data, val 0, const = 0
;;	694 register type nRegs=1
;;	694 register type nRegs=2
;;	833: aopGet AOP_PCODE type PO_IMMEDIATE
;;	_SSD_Data
;; 	line = 618 result AOP_REG=r0x105F, size=2, left AOP_PCODE=_SSD_Data, size=2, right AOP_REG=r0x105F, size=1
;;; /home/sdcc-builder/build/sdcc-build/orig/sdcc/src/pic14/genarith.c:142:genPlusIncr *{*
;; ***	genPlusIncr  144
;; 	result AOP_REG, left AOP_PCODE, right AOP_REG
;; ***	genPlus  717
;;	833: aopGet AOP_PCODE type PO_IMMEDIATE
;;	_SSD_Data
;; >>> /home/sdcc-builder/build/sdcc-build/orig/sdcc/src/pic14/genarith.c:726:genPlus
;;	1109 rIdx = r0x105F 
	.line	179; "SSD.c"	GPIO_WritePort(SSD_DATA_PORT_DR, SSD_Data[ssd_symbol]);
	BANKSEL	r0x1018
	MOVF	r0x1018,W
;; >>> /home/sdcc-builder/build/sdcc-build/orig/sdcc/src/pic14/genarith.c:735:genPlus
	ADDLW	(_SSD_Data + 0)
;; >>> /home/sdcc-builder/build/sdcc-build/orig/sdcc/src/pic14/genarith.c:736:genPlus
;;	1109 rIdx = r0x105F 
	MOVWF	r0x1018
;; >>> /home/sdcc-builder/build/sdcc-build/orig/sdcc/src/pic14/genarith.c:799:genPlus
	MOVLW	high (_SSD_Data + 0)
;; >>> /home/sdcc-builder/build/sdcc-build/orig/sdcc/src/pic14/genarith.c:800:genPlus
	BTFSC	STATUS,0
;; >>> /home/sdcc-builder/build/sdcc-build/orig/sdcc/src/pic14/genarith.c:801:genPlus
	ADDLW	0x01
;; >>> /home/sdcc-builder/build/sdcc-build/orig/sdcc/src/pic14/genarith.c:802:genPlus
;;	1109 rIdx = r0x1060 
	MOVWF	r0x1019
;;; /home/sdcc-builder/build/sdcc-build/orig/sdcc/src/pic14/gen.c:2316:resultRemat *{*
;;; /home/sdcc-builder/build/sdcc-build/orig/sdcc/src/pic14/gen.c:6162:genPointerGet *{*
;; ***	genPointerGet  6163
;;; /home/sdcc-builder/build/sdcc-build/orig/sdcc/src/pic14/gen.c:5944:genNearPointerGet *{*
;; ***	genNearPointerGet  5945
;;	694 register type nRegs=2
;; ***	genNearPointerGet  5961
;; ***	aopForSym 315
;;	327 sym->rname = _PORTD, size = 1
;;; /home/sdcc-builder/build/sdcc-build/orig/sdcc/src/pic14/gen.c:1343:mov2w_op *{*
;; ***	mov2w  1381  offset=0
;; >>> /home/sdcc-builder/build/sdcc-build/orig/sdcc/src/pic14/gen.c:1386:mov2w
;;	1109 rIdx = r0x105F 
	MOVF	r0x1018,W
;; >>> /home/sdcc-builder/build/sdcc-build/orig/sdcc/src/pic14/gen.c:5602:setup_fsr
	BANKSEL	FSR
	MOVWF	FSR
;;; /home/sdcc-builder/build/sdcc-build/orig/sdcc/src/pic14/gen.c:5553:SetIrp *{*
;; >>> /home/sdcc-builder/build/sdcc-build/orig/sdcc/src/pic14/gen.c:5580:SetIrp
	BCF	STATUS,7
;; >>> /home/sdcc-builder/build/sdcc-build/orig/sdcc/src/pic14/gen.c:5583:SetIrp
	BANKSEL	r0x1019
	BTFSC	r0x1019,0
;; >>> /home/sdcc-builder/build/sdcc-build/orig/sdcc/src/pic14/gen.c:5584:SetIrp
	BSF	STATUS,7
;; ***	genNearPointerGet  5988
;; >>> /home/sdcc-builder/build/sdcc-build/orig/sdcc/src/pic14/gen.c:5995:genNearPointerGet
	BANKSEL	INDF
	MOVF	INDF,W
;; >>> /home/sdcc-builder/build/sdcc-build/orig/sdcc/src/pic14/gen.c:6002:genNearPointerGet
;;	1009
;;	1028  _PORTD   offset=0
	MOVWF	_PORTD
;;; /home/sdcc-builder/build/sdcc-build/orig/sdcc/src/pic14/gen.c:2316:resultRemat *{*
;;; /home/sdcc-builder/build/sdcc-build/orig/sdcc/src/pic14/gen.c:2316:resultRemat *{*
;;; /home/sdcc-builder/build/sdcc-build/orig/sdcc/src/pic14/gen.c:2316:resultRemat *{*
;;; /home/sdcc-builder/build/sdcc-build/orig/sdcc/src/pic14/gen.c:2086:genCall *{*
;; ***	genCall  2088
;;; /home/sdcc-builder/build/sdcc-build/orig/sdcc/src/pic14/gen.c:1801:saveRegisters *{*
;; ***	saveRegisters  1803
;;	694 register type nRegs=1
;; 	2135 left AOP_LIT
;;; /home/sdcc-builder/build/sdcc-build/orig/sdcc/src/pic14/gen.c:1343:mov2w_op *{*
;; >>> /home/sdcc-builder/build/sdcc-build/orig/sdcc/src/pic14/gen.c:1361:mov2w_op
	.line	182; "SSD.c"	SSD_SetState(ssd, SSD_ON);
	MOVLW	0x01
;;	694 register type nRegs=1
;; 	2135 left AOP_REG
;; >>> /home/sdcc-builder/build/sdcc-build/orig/sdcc/src/pic14/gen.c:2143:genCall
;; ***	popRegFromIdx,1042  , rIdx=0x7f
	MOVWF	STK00
;;; /home/sdcc-builder/build/sdcc-build/orig/sdcc/src/pic14/gen.c:1343:mov2w_op *{*
;; ***	mov2w  1381  offset=0
;; >>> /home/sdcc-builder/build/sdcc-build/orig/sdcc/src/pic14/gen.c:1386:mov2w
;;	1109 rIdx = r0x105E 
	BANKSEL	r0x1017
	MOVF	r0x1017,W
;; >>> /home/sdcc-builder/build/sdcc-build/orig/sdcc/src/pic14/gen.c:2175:genCall
	CALL	_SSD_SetState
;;; /home/sdcc-builder/build/sdcc-build/orig/sdcc/src/pic14/gen.c:1845:unsaveRegisters *{*
;; ***	unsaveRegisters  1847
;;; /home/sdcc-builder/build/sdcc-build/orig/sdcc/src/pic14/gen.c:2316:resultRemat *{*
;;; /home/sdcc-builder/build/sdcc-build/orig/sdcc/src/pic14/gen.c:2760:genLabel *{*
;; ***	genLabel  2763
;;; /home/sdcc-builder/build/sdcc-build/orig/sdcc/src/pic14/gen.c:2316:resultRemat *{*
;;; /home/sdcc-builder/build/sdcc-build/orig/sdcc/src/pic14/gen.c:2528:genEndFunction *{*
;; ***	genEndFunction  2530
	RETURN	
; exit point of _SSD_Out

;***
;  pBlock Stats: dbName = C
;***
;entry:  _SSD_SetDotState	;Function start
; 2 exit points
;has an exit
;; Starting pCode block
;;; /home/sdcc-builder/build/sdcc-build/orig/sdcc/src/pic14/gen.c:2316:resultRemat *{*
;;; /home/sdcc-builder/build/sdcc-build/orig/sdcc/src/pic14/gen.c:2760:genLabel *{*
;; ***	genLabel  2763
;;; /home/sdcc-builder/build/sdcc-build/orig/sdcc/src/pic14/gen.c:2316:resultRemat *{*
;;; /home/sdcc-builder/build/sdcc-build/orig/sdcc/src/pic14/gen.c:2340:genFunction *{*
;; ***	genFunction  2342 curr label offset=64previous max_key=13 
_SSD_SetDotState	;Function start
; 2 exit points
;;; /home/sdcc-builder/build/sdcc-build/orig/sdcc/src/pic14/gen.c:2316:resultRemat *{*
;;; /home/sdcc-builder/build/sdcc-build/orig/sdcc/src/pic14/gen.c:7358:genReceive *{*
;; ***	genReceive  7359
;;	575
;;; /home/sdcc-builder/build/sdcc-build/orig/sdcc/src/pic14/gen.c:1907:assignResultValue *{*
;; ***	assignResultValue  1909
;; 	line = 1911 result -=-, size=0, left AOP_DIR=_SSD_DotState, size=1, right -=-, size=0
;; >>> /home/sdcc-builder/build/sdcc-build/orig/sdcc/src/pic14/gen.c:1393:movwf
;;	1009
;;	1028  _SSD_DotState   offset=0
	.line	163; "SSD.c"	void SSD_SetDotState(tByte state)
	BANKSEL	_SSD_DotState
	MOVWF	_SSD_DotState
;;; /home/sdcc-builder/build/sdcc-build/orig/sdcc/src/pic14/gen.c:2316:resultRemat *{*
;;; /home/sdcc-builder/build/sdcc-build/orig/sdcc/src/pic14/gen.c:2760:genLabel *{*
;; ***	genLabel  2763
;;; /home/sdcc-builder/build/sdcc-build/orig/sdcc/src/pic14/gen.c:2316:resultRemat *{*
;;; /home/sdcc-builder/build/sdcc-build/orig/sdcc/src/pic14/gen.c:2528:genEndFunction *{*
;; ***	genEndFunction  2530
	.line	166; "SSD.c"	SSD_DotState = state;
	RETURN	
; exit point of _SSD_SetDotState
;;; /home/sdcc-builder/build/sdcc-build/orig/sdcc/src/pic14/gen.c:7426:genpic14Code *{*

;***
;  pBlock Stats: dbName = C
;***
;entry:  _SSD_SetState	;Function start
; 2 exit points
;has an exit
;5 compiler assigned registers:
;   r0x1013
;   STK00
;   r0x1014
;   r0x1015
;   r0x1016
;; Starting pCode block
;;; /home/sdcc-builder/build/sdcc-build/orig/sdcc/src/pic14/gen.c:2316:resultRemat *{*
;;; /home/sdcc-builder/build/sdcc-build/orig/sdcc/src/pic14/gen.c:2760:genLabel *{*
;; ***	genLabel  2763
;;; /home/sdcc-builder/build/sdcc-build/orig/sdcc/src/pic14/gen.c:2316:resultRemat *{*
;;; /home/sdcc-builder/build/sdcc-build/orig/sdcc/src/pic14/gen.c:2340:genFunction *{*
;; ***	genFunction  2342 curr label offset=47previous max_key=13 
_SSD_SetState	;Function start
; 2 exit points
;;; /home/sdcc-builder/build/sdcc-build/orig/sdcc/src/pic14/gen.c:2316:resultRemat *{*
;;; /home/sdcc-builder/build/sdcc-build/orig/sdcc/src/pic14/gen.c:7358:genReceive *{*
;; ***	genReceive  7359
;;	694 register type nRegs=1
;;; /home/sdcc-builder/build/sdcc-build/orig/sdcc/src/pic14/gen.c:1907:assignResultValue *{*
;; ***	assignResultValue  1909
;; 	line = 1911 result -=-, size=0, left AOP_REG=r0x1059, size=1, right -=-, size=0
;; >>> /home/sdcc-builder/build/sdcc-build/orig/sdcc/src/pic14/gen.c:1393:movwf
;;	1109 rIdx = r0x1059 
	.line	137; "SSD.c"	void SSD_SetState(tSSD ssd, tSSD_State state)
	BANKSEL	r0x1013
	MOVWF	r0x1013
;;; /home/sdcc-builder/build/sdcc-build/orig/sdcc/src/pic14/gen.c:2316:resultRemat *{*
;;; /home/sdcc-builder/build/sdcc-build/orig/sdcc/src/pic14/gen.c:7358:genReceive *{*
;; ***	genReceive  7359
;;	694 register type nRegs=1
;;; /home/sdcc-builder/build/sdcc-build/orig/sdcc/src/pic14/gen.c:1907:assignResultValue *{*
;; ***	assignResultValue  1909
;; 	line = 1911 result -=-, size=0, left AOP_REG=r0x105A, size=1, right -=-, size=0
;; >>> /home/sdcc-builder/build/sdcc-build/orig/sdcc/src/pic14/gen.c:1423:get_returnvalue
;; ***	popRegFromIdx,1042  , rIdx=0x7f
	MOVF	STK00,W
;; >>> /home/sdcc-builder/build/sdcc-build/orig/sdcc/src/pic14/gen.c:1393:movwf
;;	1109 rIdx = r0x105A 
	MOVWF	r0x1014
;;; /home/sdcc-builder/build/sdcc-build/orig/sdcc/src/pic14/gen.c:2316:resultRemat *{*
;;; /home/sdcc-builder/build/sdcc-build/orig/sdcc/src/pic14/gen.c:3547:genCmpGt *{*
;; ***	genCmpGt  3548
;;	694 register type nRegs=1
;;; /home/sdcc-builder/build/sdcc-build/orig/sdcc/src/pic14/gen.c:3294:genCmp *{*
;;swapping arguments (AOP_TYPEs 1/2)
;;unsigned compare: left >= lit(0x4=4), size=1
;; >>> /home/sdcc-builder/build/sdcc-build/orig/sdcc/src/pic14/gen.c:3265:pic14_mov2w_regOrLit
	.line	140; "SSD.c"	switch (ssd)
	MOVLW	0x04
;; >>> /home/sdcc-builder/build/sdcc-build/orig/sdcc/src/pic14/gen.c:3432:genCmp
;;	1109 rIdx = r0x1059 
	SUBWF	r0x1013,W
;;; /home/sdcc-builder/build/sdcc-build/orig/sdcc/src/pic14/gen.c:3237:genSkipc *{*
;; >>> /home/sdcc-builder/build/sdcc-build/orig/sdcc/src/pic14/gen.c:3242:genSkipc
	BTFSC	STATUS,0
;; >>> /home/sdcc-builder/build/sdcc-build/orig/sdcc/src/pic14/gen.c:3246:genSkipc
;; ***	popGetLabel  key=7, label offset 64
	GOTO	_00171_DS_
;;genSkipc:3247: created from rifx:027A5DF4
;;; /home/sdcc-builder/build/sdcc-build/orig/sdcc/src/pic14/gen.c:2316:resultRemat *{*
;;; /home/sdcc-builder/build/sdcc-build/orig/sdcc/src/pic14/gen.c:2316:resultRemat *{*
;;; /home/sdcc-builder/build/sdcc-build/orig/sdcc/src/pic14/gen.c:7071:genJumpTab *{*
;; ***	genJumpTab  7072
;;	694 register type nRegs=1
;; >>> /home/sdcc-builder/build/sdcc-build/orig/sdcc/src/pic14/gen.c:7087:genJumpTab
;; ***	popGetLabel  key=13, label offset 64
	MOVLW	HIGH(_00177_DS_)
;; >>> /home/sdcc-builder/build/sdcc-build/orig/sdcc/src/pic14/gen.c:7088:genJumpTab
	BANKSEL	PCLATH
	MOVWF	PCLATH
;; >>> /home/sdcc-builder/build/sdcc-build/orig/sdcc/src/pic14/gen.c:7089:genJumpTab
;; ***	popGetLabel  key=13, label offset 64
	MOVLW	_00177_DS_
;; >>> /home/sdcc-builder/build/sdcc-build/orig/sdcc/src/pic14/gen.c:7090:genJumpTab
;;	1109 rIdx = r0x1059 
	BANKSEL	r0x1013
	ADDWF	r0x1013,W
;; >>> /home/sdcc-builder/build/sdcc-build/orig/sdcc/src/pic14/gen.c:7091:genJumpTab
	BTFSS	STATUS,0
	GOTO	_00001_DS_
;; >>> /home/sdcc-builder/build/sdcc-build/orig/sdcc/src/pic14/gen.c:7092:genJumpTab
	BANKSEL	PCLATH
	INCF	PCLATH,F
;; >>> /home/sdcc-builder/build/sdcc-build/orig/sdcc/src/pic14/gen.c:7093:genJumpTab
_00001_DS_
	MOVWF	PCL
;; >>> /home/sdcc-builder/build/sdcc-build/orig/sdcc/src/pic14/gen.c:7102:genJumpTab
;; ***	popGetLabel  key=1, label offset 64
_00177_DS_
	GOTO	_00165_DS_
;; >>> /home/sdcc-builder/build/sdcc-build/orig/sdcc/src/pic14/gen.c:7102:genJumpTab
;; ***	popGetLabel  key=2, label offset 64
	GOTO	_00166_DS_
;; >>> /home/sdcc-builder/build/sdcc-build/orig/sdcc/src/pic14/gen.c:7102:genJumpTab
;; ***	popGetLabel  key=3, label offset 64
	GOTO	_00167_DS_
;; >>> /home/sdcc-builder/build/sdcc-build/orig/sdcc/src/pic14/gen.c:7102:genJumpTab
;; ***	popGetLabel  key=4, label offset 64
	GOTO	_00168_DS_
;;; /home/sdcc-builder/build/sdcc-build/orig/sdcc/src/pic14/gen.c:2316:resultRemat *{*
;;; /home/sdcc-builder/build/sdcc-build/orig/sdcc/src/pic14/gen.c:2760:genLabel *{*
;; ***	genLabel  2763
;;; /home/sdcc-builder/build/sdcc-build/orig/sdcc/src/pic14/gen.c:2316:resultRemat *{*
;;; /home/sdcc-builder/build/sdcc-build/orig/sdcc/src/pic14/gen.c:7120:genCast *{*
;; ***	genCast  7121
;; ***	aopForSym 315
;;	327 sym->rname = _PORTB, size = 1
;;	694 register type nRegs=1
;; 	line = 7129 result AOP_REG=r0x1059, size=1, left -=-, size=0, right AOP_DIR=_PORTB, size=1
;; ***	genCast  7253
;; >>> /home/sdcc-builder/build/sdcc-build/orig/sdcc/src/pic14/gen.c:7277:genCast
;;	1009
;;	1028  _PORTB   offset=0
_00165_DS_
	.line	143; "SSD.c"	GPIO_WritePortPin(SSD_MINUTES_UNITS_DR, SSD_MINUTES_UNITS_PIN, state);
	BANKSEL	_PORTB
	MOVF	_PORTB,W
;; >>> /home/sdcc-builder/build/sdcc-build/orig/sdcc/src/pic14/gen.c:7278:genCast
;;	1109 rIdx = r0x1059 
	BANKSEL	r0x1013
	MOVWF	r0x1013
;;; /home/sdcc-builder/build/sdcc-build/orig/sdcc/src/pic14/gen.c:2316:resultRemat *{*
;;; /home/sdcc-builder/build/sdcc-build/orig/sdcc/src/pic14/gen.c:3919:genAnd *{*
;; ***	genAnd  3920
;;	694 register type nRegs=1
;;	694 register type nRegs=1
;; 	line = 3955 result AOP_REG=r0x1059, size=1, left AOP_REG=r0x1059, size=1, right AOP_LIT=0xef, size=1
;; >>> /home/sdcc-builder/build/sdcc-build/orig/sdcc/src/pic14/gen.c:4122:genAnd
	BCF	r0x1013,4
;;; /home/sdcc-builder/build/sdcc-build/orig/sdcc/src/pic14/gen.c:2316:resultRemat *{*
;;; /home/sdcc-builder/build/sdcc-build/orig/sdcc/src/pic14/gen.c:5418:genGenericShift *{*
;; ***	genGenericShift  5421
;;	694 register type nRegs=1
;;	694 register type nRegs=1
;; >>> /home/sdcc-builder/build/sdcc-build/orig/sdcc/src/pic14/gen.c:5201:shiftLeft_Left2ResultLit
;;	1109 rIdx = r0x105A 
	SWAPF	r0x1014,W
;; >>> /home/sdcc-builder/build/sdcc-build/orig/sdcc/src/pic14/gen.c:5202:shiftLeft_Left2ResultLit
	ANDLW	0xf0
;; >>> /home/sdcc-builder/build/sdcc-build/orig/sdcc/src/pic14/gen.c:5203:shiftLeft_Left2ResultLit
;;	1109 rIdx = r0x105B 
	MOVWF	r0x1015
	MOVWF	r0x1016
	IORWF	r0x1013,W
;; >>> /home/sdcc-builder/build/sdcc-build/orig/sdcc/src/pic14/gen.c:4481:genOr
;;	1009
;;	1028  _PORTB   offset=0
	BANKSEL	_PORTB
	MOVWF	_PORTB
;;; /home/sdcc-builder/build/sdcc-build/orig/sdcc/src/pic14/gen.c:2316:resultRemat *{*
;;; /home/sdcc-builder/build/sdcc-build/orig/sdcc/src/pic14/gen.c:2778:genGoto *{*
;; >>> /home/sdcc-builder/build/sdcc-build/orig/sdcc/src/pic14/gen.c:2780:genGoto
;; ***	popGetLabel  key=7, label offset 64
	.line	144; "SSD.c"	break;
	GOTO	_00171_DS_
;;; /home/sdcc-builder/build/sdcc-build/orig/sdcc/src/pic14/gen.c:2316:resultRemat *{*
;;; /home/sdcc-builder/build/sdcc-build/orig/sdcc/src/pic14/gen.c:2760:genLabel *{*
;; ***	genLabel  2763
;;; /home/sdcc-builder/build/sdcc-build/orig/sdcc/src/pic14/gen.c:2316:resultRemat *{*
;;; /home/sdcc-builder/build/sdcc-build/orig/sdcc/src/pic14/gen.c:7120:genCast *{*
;; ***	genCast  7121
;; ***	aopForSym 315
;;	327 sym->rname = _PORTB, size = 1
;;	694 register type nRegs=1
;; 	line = 7129 result AOP_REG=r0x1059, size=1, left -=-, size=0, right AOP_DIR=_PORTB, size=1
;; ***	genCast  7253
;; >>> /home/sdcc-builder/build/sdcc-build/orig/sdcc/src/pic14/gen.c:7277:genCast
;;	1009
;;	1028  _PORTB   offset=0
_00166_DS_
	.line	146; "SSD.c"	GPIO_WritePortPin(SSD_MINUTES_TENS_DR, SSD_MINUTES_TENS_PIN, state);
	BANKSEL	_PORTB
	MOVF	_PORTB,W
;; >>> /home/sdcc-builder/build/sdcc-build/orig/sdcc/src/pic14/gen.c:7278:genCast
;;	1109 rIdx = r0x1059 
	BANKSEL	r0x1013
	MOVWF	r0x1013
;;; /home/sdcc-builder/build/sdcc-build/orig/sdcc/src/pic14/gen.c:2316:resultRemat *{*
;;; /home/sdcc-builder/build/sdcc-build/orig/sdcc/src/pic14/gen.c:3919:genAnd *{*
;; ***	genAnd  3920
;;	694 register type nRegs=1
;;	694 register type nRegs=1
;; 	line = 3955 result AOP_REG=r0x1059, size=1, left AOP_REG=r0x1059, size=1, right AOP_LIT=0xdf, size=1
;; >>> /home/sdcc-builder/build/sdcc-build/orig/sdcc/src/pic14/gen.c:4122:genAnd
	BCF	r0x1013,5
;;; /home/sdcc-builder/build/sdcc-build/orig/sdcc/src/pic14/gen.c:2316:resultRemat *{*
;;; /home/sdcc-builder/build/sdcc-build/orig/sdcc/src/pic14/gen.c:5418:genGenericShift *{*
;; ***	genGenericShift  5421
;;	575
;;	694 register type nRegs=1
;; >>> /home/sdcc-builder/build/sdcc-build/orig/sdcc/src/pic14/gen.c:5201:shiftLeft_Left2ResultLit
;;	1109 rIdx = r0x105A 
	SWAPF	r0x1014,W
;; >>> /home/sdcc-builder/build/sdcc-build/orig/sdcc/src/pic14/gen.c:5202:shiftLeft_Left2ResultLit
	ANDLW	0xf0
;; >>> /home/sdcc-builder/build/sdcc-build/orig/sdcc/src/pic14/gen.c:5203:shiftLeft_Left2ResultLit
;;	1109 rIdx = r0x105B 
	MOVWF	r0x1015
;; >>> /home/sdcc-builder/build/sdcc-build/orig/sdcc/src/pic14/gen.c:5183:shiftLeft_Left2ResultLit
	BCF	STATUS,0
;; >>> /home/sdcc-builder/build/sdcc-build/orig/sdcc/src/pic14/gen.c:5188:shiftLeft_Left2ResultLit
;;	1109 rIdx = r0x105B 
	RLF	r0x1015,F
;;; /home/sdcc-builder/build/sdcc-build/orig/sdcc/src/pic14/gen.c:2316:resultRemat *{*
;;; /home/sdcc-builder/build/sdcc-build/orig/sdcc/src/pic14/gen.c:7120:genCast *{*
;; ***	genCast  7121
;;	694 register type nRegs=1
;; 	line = 7129 result AOP_REG=r0x105C, size=1, left -=-, size=0, right AOP_REG=r0x105B, size=1
;; ***	genCast  7253
;; >>> /home/sdcc-builder/build/sdcc-build/orig/sdcc/src/pic14/gen.c:7277:genCast
;;	1109 rIdx = r0x105B 
	MOVF	r0x1015,W
	MOVWF	r0x1016
	IORWF	r0x1013,W
;; >>> /home/sdcc-builder/build/sdcc-build/orig/sdcc/src/pic14/gen.c:4481:genOr
;;	1009
;;	1028  _PORTB   offset=0
	BANKSEL	_PORTB
	MOVWF	_PORTB
;;; /home/sdcc-builder/build/sdcc-build/orig/sdcc/src/pic14/gen.c:2316:resultRemat *{*
;;; /home/sdcc-builder/build/sdcc-build/orig/sdcc/src/pic14/gen.c:2778:genGoto *{*
;; >>> /home/sdcc-builder/build/sdcc-build/orig/sdcc/src/pic14/gen.c:2780:genGoto
;; ***	popGetLabel  key=7, label offset 64
	.line	147; "SSD.c"	break;
	GOTO	_00171_DS_
;;; /home/sdcc-builder/build/sdcc-build/orig/sdcc/src/pic14/gen.c:2316:resultRemat *{*
;;; /home/sdcc-builder/build/sdcc-build/orig/sdcc/src/pic14/gen.c:2760:genLabel *{*
;; ***	genLabel  2763
;;; /home/sdcc-builder/build/sdcc-build/orig/sdcc/src/pic14/gen.c:2316:resultRemat *{*
;;; /home/sdcc-builder/build/sdcc-build/orig/sdcc/src/pic14/gen.c:7120:genCast *{*
;; ***	genCast  7121
;; ***	aopForSym 315
;;	327 sym->rname = _PORTB, size = 1
;;	694 register type nRegs=1
;; 	line = 7129 result AOP_REG=r0x1059, size=1, left -=-, size=0, right AOP_DIR=_PORTB, size=1
;; ***	genCast  7253
;; >>> /home/sdcc-builder/build/sdcc-build/orig/sdcc/src/pic14/gen.c:7277:genCast
;;	1009
;;	1028  _PORTB   offset=0
_00167_DS_
	.line	149; "SSD.c"	GPIO_WritePortPin(SSD_HOURS_UNITS_DR, SSD_HOURS_UNITS_PIN, state);
	BANKSEL	_PORTB
	MOVF	_PORTB,W
;; >>> /home/sdcc-builder/build/sdcc-build/orig/sdcc/src/pic14/gen.c:7278:genCast
;;	1109 rIdx = r0x1059 
	BANKSEL	r0x1013
	MOVWF	r0x1013
;;; /home/sdcc-builder/build/sdcc-build/orig/sdcc/src/pic14/gen.c:2316:resultRemat *{*
;;; /home/sdcc-builder/build/sdcc-build/orig/sdcc/src/pic14/gen.c:3919:genAnd *{*
;; ***	genAnd  3920
;;	694 register type nRegs=1
;;	694 register type nRegs=1
;; 	line = 3955 result AOP_REG=r0x1059, size=1, left AOP_REG=r0x1059, size=1, right AOP_LIT=0xbf, size=1
;; >>> /home/sdcc-builder/build/sdcc-build/orig/sdcc/src/pic14/gen.c:4122:genAnd
	BCF	r0x1013,6
;;; /home/sdcc-builder/build/sdcc-build/orig/sdcc/src/pic14/gen.c:2316:resultRemat *{*
;;; /home/sdcc-builder/build/sdcc-build/orig/sdcc/src/pic14/gen.c:5418:genGenericShift *{*
;; ***	genGenericShift  5421
;;	575
;;	694 register type nRegs=1
;; >>> /home/sdcc-builder/build/sdcc-build/orig/sdcc/src/pic14/gen.c:5201:shiftLeft_Left2ResultLit
;;	1109 rIdx = r0x105A 
	SWAPF	r0x1014,W
;; >>> /home/sdcc-builder/build/sdcc-build/orig/sdcc/src/pic14/gen.c:5202:shiftLeft_Left2ResultLit
	ANDLW	0xf0
;; >>> /home/sdcc-builder/build/sdcc-build/orig/sdcc/src/pic14/gen.c:5203:shiftLeft_Left2ResultLit
;;	1109 rIdx = r0x105B 
	MOVWF	r0x1015
;; >>> /home/sdcc-builder/build/sdcc-build/orig/sdcc/src/pic14/gen.c:5183:shiftLeft_Left2ResultLit
	BCF	STATUS,0
;; >>> /home/sdcc-builder/build/sdcc-build/orig/sdcc/src/pic14/gen.c:5188:shiftLeft_Left2ResultLit
;;	1109 rIdx = r0x105B 
	RLF	r0x1015,F
;; >>> /home/sdcc-builder/build/sdcc-build/orig/sdcc/src/pic14/gen.c:5183:shiftLeft_Left2ResultLit
	BCF	STATUS,0
;; >>> /home/sdcc-builder/build/sdcc-build/orig/sdcc/src/pic14/gen.c:5188:shiftLeft_Left2ResultLit
;;	1109 rIdx = r0x105B 
	RLF	r0x1015,F
;;; /home/sdcc-builder/build/sdcc-build/orig/sdcc/src/pic14/gen.c:2316:resultRemat *{*
;;; /home/sdcc-builder/build/sdcc-build/orig/sdcc/src/pic14/gen.c:7120:genCast *{*
;; ***	genCast  7121
;;	694 register type nRegs=1
;; 	line = 7129 result AOP_REG=r0x105C, size=1, left -=-, size=0, right AOP_REG=r0x105B, size=1
;; ***	genCast  7253
;; >>> /home/sdcc-builder/build/sdcc-build/orig/sdcc/src/pic14/gen.c:7277:genCast
;;	1109 rIdx = r0x105B 
	MOVF	r0x1015,W
	MOVWF	r0x1016
	IORWF	r0x1013,W
;; >>> /home/sdcc-builder/build/sdcc-build/orig/sdcc/src/pic14/gen.c:4481:genOr
;;	1009
;;	1028  _PORTB   offset=0
	BANKSEL	_PORTB
	MOVWF	_PORTB
;;; /home/sdcc-builder/build/sdcc-build/orig/sdcc/src/pic14/gen.c:2316:resultRemat *{*
;;; /home/sdcc-builder/build/sdcc-build/orig/sdcc/src/pic14/gen.c:7120:genCast *{*
;; ***	genCast  7121
;; ***	aopForSym 315
;;	327 sym->rname = _PORTD, size = 1
;;	694 register type nRegs=1
;; 	line = 7129 result AOP_REG=r0x1059, size=1, left -=-, size=0, right AOP_DIR=_PORTD, size=1
;; ***	genCast  7253
;; >>> /home/sdcc-builder/build/sdcc-build/orig/sdcc/src/pic14/gen.c:7277:genCast
;;	1009
;;	1028  _PORTD   offset=0
	.line	150; "SSD.c"	GPIO_WritePortPin(SSD_DATA_PORT_DR, GPIO_PIN_7, SSD_DotState);
	MOVF	_PORTD,W
;; >>> /home/sdcc-builder/build/sdcc-build/orig/sdcc/src/pic14/gen.c:7278:genCast
;;	1109 rIdx = r0x1059 
	BANKSEL	r0x1013
	MOVWF	r0x1013
;;; /home/sdcc-builder/build/sdcc-build/orig/sdcc/src/pic14/gen.c:2316:resultRemat *{*
;;; /home/sdcc-builder/build/sdcc-build/orig/sdcc/src/pic14/gen.c:3919:genAnd *{*
;; ***	genAnd  3920
;;	694 register type nRegs=1
;;	694 register type nRegs=1
;; 	line = 3955 result AOP_REG=r0x1059, size=1, left AOP_REG=r0x1059, size=1, right AOP_LIT=0x7f, size=1
;; >>> /home/sdcc-builder/build/sdcc-build/orig/sdcc/src/pic14/gen.c:4122:genAnd
	BCF	r0x1013,7
;;; /home/sdcc-builder/build/sdcc-build/orig/sdcc/src/pic14/gen.c:2316:resultRemat *{*
;;; /home/sdcc-builder/build/sdcc-build/orig/sdcc/src/pic14/gen.c:5418:genGenericShift *{*
;; ***	genGenericShift  5421
;; ***	aopForSym 315
;;	327 sym->rname = _SSD_DotState, size = 1
;;	694 register type nRegs=1
;; >>> /home/sdcc-builder/build/sdcc-build/orig/sdcc/src/pic14/gen.c:5217:shiftLeft_Left2ResultLit
;;	1009
;;	1024  _SSD_DotState   offset=0 - had to alloc by reg name
	BANKSEL	_SSD_DotState
	RRF	_SSD_DotState,W
;; >>> /home/sdcc-builder/build/sdcc-build/orig/sdcc/src/pic14/gen.c:5223:shiftLeft_Left2ResultLit
;;	1109 rIdx = r0x105B 
	BANKSEL	r0x1015
	CLRF	r0x1015
;; >>> /home/sdcc-builder/build/sdcc-build/orig/sdcc/src/pic14/gen.c:5224:shiftLeft_Left2ResultLit
;;	1109 rIdx = r0x105B 
	RRF	r0x1015,F
;;; /home/sdcc-builder/build/sdcc-build/orig/sdcc/src/pic14/gen.c:2316:resultRemat *{*
;;; /home/sdcc-builder/build/sdcc-build/orig/sdcc/src/pic14/gen.c:7120:genCast *{*
;; ***	genCast  7121
;;	694 register type nRegs=1
;; 	line = 7129 result AOP_REG=r0x105C, size=1, left -=-, size=0, right AOP_REG=r0x105B, size=1
;; ***	genCast  7253
;; >>> /home/sdcc-builder/build/sdcc-build/orig/sdcc/src/pic14/gen.c:7277:genCast
;;	1109 rIdx = r0x105B 
	MOVF	r0x1015,W
	MOVWF	r0x1016
	IORWF	r0x1013,W
;; >>> /home/sdcc-builder/build/sdcc-build/orig/sdcc/src/pic14/gen.c:4481:genOr
;;	1009
;;	1028  _PORTD   offset=0
	BANKSEL	_PORTD
	MOVWF	_PORTD
;;; /home/sdcc-builder/build/sdcc-build/orig/sdcc/src/pic14/gen.c:2316:resultRemat *{*
;;; /home/sdcc-builder/build/sdcc-build/orig/sdcc/src/pic14/gen.c:2778:genGoto *{*
;; >>> /home/sdcc-builder/build/sdcc-build/orig/sdcc/src/pic14/gen.c:2780:genGoto
;; ***	popGetLabel  key=7, label offset 64
	.line	151; "SSD.c"	break;
	GOTO	_00171_DS_
;;; /home/sdcc-builder/build/sdcc-build/orig/sdcc/src/pic14/gen.c:2316:resultRemat *{*
;;; /home/sdcc-builder/build/sdcc-build/orig/sdcc/src/pic14/gen.c:2760:genLabel *{*
;; ***	genLabel  2763
;;; /home/sdcc-builder/build/sdcc-build/orig/sdcc/src/pic14/gen.c:2316:resultRemat *{*
;;; /home/sdcc-builder/build/sdcc-build/orig/sdcc/src/pic14/gen.c:7120:genCast *{*
;; ***	genCast  7121
;; ***	aopForSym 315
;;	327 sym->rname = _PORTB, size = 1
;;	694 register type nRegs=1
;; 	line = 7129 result AOP_REG=r0x1059, size=1, left -=-, size=0, right AOP_DIR=_PORTB, size=1
;; ***	genCast  7253
;; >>> /home/sdcc-builder/build/sdcc-build/orig/sdcc/src/pic14/gen.c:7277:genCast
;;	1009
;;	1028  _PORTB   offset=0
_00168_DS_
	.line	153; "SSD.c"	GPIO_WritePortPin(SSD_HOURS_TENS_DR, SSD_HOURS_TENS_PIN, state);
	BANKSEL	_PORTB
	MOVF	_PORTB,W
;; >>> /home/sdcc-builder/build/sdcc-build/orig/sdcc/src/pic14/gen.c:7278:genCast
;;	1109 rIdx = r0x1059 
	BANKSEL	r0x1013
	MOVWF	r0x1013
;;; /home/sdcc-builder/build/sdcc-build/orig/sdcc/src/pic14/gen.c:2316:resultRemat *{*
;;; /home/sdcc-builder/build/sdcc-build/orig/sdcc/src/pic14/gen.c:3919:genAnd *{*
;; ***	genAnd  3920
;;	694 register type nRegs=1
;;	694 register type nRegs=1
;; 	line = 3955 result AOP_REG=r0x1059, size=1, left AOP_REG=r0x1059, size=1, right AOP_LIT=0x7f, size=1
;; >>> /home/sdcc-builder/build/sdcc-build/orig/sdcc/src/pic14/gen.c:4122:genAnd
	BCF	r0x1013,7
;;; /home/sdcc-builder/build/sdcc-build/orig/sdcc/src/pic14/gen.c:2316:resultRemat *{*
;;; /home/sdcc-builder/build/sdcc-build/orig/sdcc/src/pic14/gen.c:5418:genGenericShift *{*
;; ***	genGenericShift  5421
;;	575
;;	694 register type nRegs=1
;; >>> /home/sdcc-builder/build/sdcc-build/orig/sdcc/src/pic14/gen.c:5217:shiftLeft_Left2ResultLit
;;	1109 rIdx = r0x105A 
	RRF	r0x1014,W
;; >>> /home/sdcc-builder/build/sdcc-build/orig/sdcc/src/pic14/gen.c:5223:shiftLeft_Left2ResultLit
;;	1109 rIdx = r0x105B 
	CLRF	r0x1015
;; >>> /home/sdcc-builder/build/sdcc-build/orig/sdcc/src/pic14/gen.c:5224:shiftLeft_Left2ResultLit
;;	1109 rIdx = r0x105B 
	RRF	r0x1015,F
;;; /home/sdcc-builder/build/sdcc-build/orig/sdcc/src/pic14/gen.c:2316:resultRemat *{*
;;; /home/sdcc-builder/build/sdcc-build/orig/sdcc/src/pic14/gen.c:7120:genCast *{*
;; ***	genCast  7121
;;	694 register type nRegs=1
;; 	line = 7129 result AOP_REG=r0x105A, size=1, left -=-, size=0, right AOP_REG=r0x105B, size=1
;; ***	genCast  7253
;; >>> /home/sdcc-builder/build/sdcc-build/orig/sdcc/src/pic14/gen.c:7277:genCast
;;	1109 rIdx = r0x105B 
	MOVF	r0x1015,W
	MOVWF	r0x1014
	IORWF	r0x1013,W
;; >>> /home/sdcc-builder/build/sdcc-build/orig/sdcc/src/pic14/gen.c:4481:genOr
;;	1009
;;	1028  _PORTB   offset=0
	BANKSEL	_PORTB
	MOVWF	_PORTB
;;; /home/sdcc-builder/build/sdcc-build/orig/sdcc/src/pic14/gen.c:2316:resultRemat *{*
;;; /home/sdcc-builder/build/sdcc-build/orig/sdcc/src/pic14/gen.c:2760:genLabel *{*
;; ***	genLabel  2763
;;; /home/sdcc-builder/build/sdcc-build/orig/sdcc/src/pic14/gen.c:2316:resultRemat *{*
;;; /home/sdcc-builder/build/sdcc-build/orig/sdcc/src/pic14/gen.c:2528:genEndFunction *{*
;; ***	genEndFunction  2530
_00171_DS_
	.line	158; "SSD.c"	}
	RETURN	
; exit point of _SSD_SetState
;;; /home/sdcc-builder/build/sdcc-build/orig/sdcc/src/pic14/gen.c:7426:genpic14Code *{*

;***
;  pBlock Stats: dbName = C
;***
;entry:  _SSD_GetState	;Function start
; 2 exit points
;has an exit
;2 compiler assigned registers:
;   r0x101A
;   r0x101B
;; Starting pCode block
;;; /home/sdcc-builder/build/sdcc-build/orig/sdcc/src/pic14/gen.c:2316:resultRemat *{*
;;; /home/sdcc-builder/build/sdcc-build/orig/sdcc/src/pic14/gen.c:2760:genLabel *{*
;; ***	genLabel  2763
;;; /home/sdcc-builder/build/sdcc-build/orig/sdcc/src/pic14/gen.c:2316:resultRemat *{*
;;; /home/sdcc-builder/build/sdcc-build/orig/sdcc/src/pic14/gen.c:2340:genFunction *{*
;; ***	genFunction  2342 curr label offset=43previous max_key=0 
_SSD_GetState	;Function start
; 2 exit points
;;; /home/sdcc-builder/build/sdcc-build/orig/sdcc/src/pic14/gen.c:2316:resultRemat *{*
;;; /home/sdcc-builder/build/sdcc-build/orig/sdcc/src/pic14/gen.c:7358:genReceive *{*
;; ***	genReceive  7359
;;	694 register type nRegs=1
;;; /home/sdcc-builder/build/sdcc-build/orig/sdcc/src/pic14/gen.c:1907:assignResultValue *{*
;; ***	assignResultValue  1909
;; 	line = 1911 result -=-, size=0, left AOP_REG=r0x1056, size=1, right -=-, size=0
;; >>> /home/sdcc-builder/build/sdcc-build/orig/sdcc/src/pic14/gen.c:1393:movwf
;;	1109 rIdx = r0x1056 
	.line	110; "SSD.c"	tSSD_State SSD_GetState(tSSD ssd)
	BANKSEL	r0x101A
	MOVWF	r0x101A
;;; /home/sdcc-builder/build/sdcc-build/orig/sdcc/src/pic14/gen.c:2316:resultRemat *{*
;;; /home/sdcc-builder/build/sdcc-build/orig/sdcc/src/pic14/gen.c:6927:genAssign *{*
;; ***	genAssign  6928
;;	694 register type nRegs=1
;; 	line = 6937 result AOP_REG=r0x1057, size=1, left -=-, size=0, right AOP_LIT=0x00, size=1
;; ***	genAssign  7023
;; >>> /home/sdcc-builder/build/sdcc-build/orig/sdcc/src/pic14/gen.c:7035:genAssign
;;	1109 rIdx = r0x1057 
	.line	112; "SSD.c"	tSSD_State ret = SSD_OFF;
	CLRF	r0x101B
;;; /home/sdcc-builder/build/sdcc-build/orig/sdcc/src/pic14/gen.c:2316:resultRemat *{*
;;; /home/sdcc-builder/build/sdcc-build/orig/sdcc/src/pic14/gen.c:3547:genCmpGt *{*
;; ***	genCmpGt  3548
;;	694 register type nRegs=1
;;; /home/sdcc-builder/build/sdcc-build/orig/sdcc/src/pic14/gen.c:3294:genCmp *{*
;;swapping arguments (AOP_TYPEs 1/2)
;;unsigned compare: left >= lit(0x4=4), size=1
;; >>> /home/sdcc-builder/build/sdcc-build/orig/sdcc/src/pic14/gen.c:3265:pic14_mov2w_regOrLit
	.line	114; "SSD.c"	switch (ssd)
	MOVLW	0x04
;; >>> /home/sdcc-builder/build/sdcc-build/orig/sdcc/src/pic14/gen.c:3432:genCmp
;;	1109 rIdx = r0x1056 
	SUBWF	r0x101A,W
;;; /home/sdcc-builder/build/sdcc-build/orig/sdcc/src/pic14/gen.c:3237:genSkipc *{*
;; >>> /home/sdcc-builder/build/sdcc-build/orig/sdcc/src/pic14/gen.c:3242:genSkipc
	BTFSC	STATUS,0
;; >>> /home/sdcc-builder/build/sdcc-build/orig/sdcc/src/pic14/gen.c:3246:genSkipc
;; ***	popGetLabel  key=6, label offset 47
	GOTO	_00153_DS_
;;genSkipc:3247: created from rifx:027A5DF4
;;; /home/sdcc-builder/build/sdcc-build/orig/sdcc/src/pic14/gen.c:2316:resultRemat *{*
;;; /home/sdcc-builder/build/sdcc-build/orig/sdcc/src/pic14/gen.c:2316:resultRemat *{*
;;; /home/sdcc-builder/build/sdcc-build/orig/sdcc/src/pic14/gen.c:7071:genJumpTab *{*
;; ***	genJumpTab  7072
;;	694 register type nRegs=1
;; >>> /home/sdcc-builder/build/sdcc-build/orig/sdcc/src/pic14/gen.c:7087:genJumpTab
;; ***	popGetLabel  key=13, label offset 47
	MOVLW	HIGH(_00160_DS_)
;; >>> /home/sdcc-builder/build/sdcc-build/orig/sdcc/src/pic14/gen.c:7088:genJumpTab
	BANKSEL	PCLATH
	MOVWF	PCLATH
;; >>> /home/sdcc-builder/build/sdcc-build/orig/sdcc/src/pic14/gen.c:7089:genJumpTab
;; ***	popGetLabel  key=13, label offset 47
	MOVLW	_00160_DS_
;; >>> /home/sdcc-builder/build/sdcc-build/orig/sdcc/src/pic14/gen.c:7090:genJumpTab
;;	1109 rIdx = r0x1056 
	BANKSEL	r0x101A
	ADDWF	r0x101A,W
;; >>> /home/sdcc-builder/build/sdcc-build/orig/sdcc/src/pic14/gen.c:7091:genJumpTab
	BTFSS	STATUS,0
	GOTO	_00002_DS_
;; >>> /home/sdcc-builder/build/sdcc-build/orig/sdcc/src/pic14/gen.c:7092:genJumpTab
	BANKSEL	PCLATH
	INCF	PCLATH,F
;; >>> /home/sdcc-builder/build/sdcc-build/orig/sdcc/src/pic14/gen.c:7093:genJumpTab
_00002_DS_
	MOVWF	PCL
;; >>> /home/sdcc-builder/build/sdcc-build/orig/sdcc/src/pic14/gen.c:7102:genJumpTab
;; ***	popGetLabel  key=1, label offset 47
_00160_DS_
	GOTO	_00148_DS_
;; >>> /home/sdcc-builder/build/sdcc-build/orig/sdcc/src/pic14/gen.c:7102:genJumpTab
;; ***	popGetLabel  key=2, label offset 47
	GOTO	_00149_DS_
;; >>> /home/sdcc-builder/build/sdcc-build/orig/sdcc/src/pic14/gen.c:7102:genJumpTab
;; ***	popGetLabel  key=3, label offset 47
	GOTO	_00150_DS_
;; >>> /home/sdcc-builder/build/sdcc-build/orig/sdcc/src/pic14/gen.c:7102:genJumpTab
;; ***	popGetLabel  key=4, label offset 47
	GOTO	_00151_DS_
;;; /home/sdcc-builder/build/sdcc-build/orig/sdcc/src/pic14/gen.c:2316:resultRemat *{*
;;; /home/sdcc-builder/build/sdcc-build/orig/sdcc/src/pic14/gen.c:2760:genLabel *{*
;; ***	genLabel  2763
;;; /home/sdcc-builder/build/sdcc-build/orig/sdcc/src/pic14/gen.c:2316:resultRemat *{*
;;; /home/sdcc-builder/build/sdcc-build/orig/sdcc/src/pic14/gen.c:3919:genAnd *{*
;; ***	genAnd  3920
;; ***	aopForSym 315
;;	327 sym->rname = _PORTB, size = 1
;;	694 register type nRegs=1
;; 	line = 3955 result AOP_REG=r0x1056, size=1, left AOP_DIR=_PORTB, size=1, right AOP_LIT=0x10, size=1
;; >>> /home/sdcc-builder/build/sdcc-build/orig/sdcc/src/pic14/gen.c:4190:genAnd
_00148_DS_
	.line	117; "SSD.c"	ret = GPIO_ReadPortPin(SSD_MINUTES_UNITS_DR, SSD_MINUTES_UNITS_PIN);
	MOVLW	0x10
;; >>> /home/sdcc-builder/build/sdcc-build/orig/sdcc/src/pic14/gen.c:4191:genAnd
;;	1009
;;	1024  _PORTB   offset=0 - had to alloc by reg name
	BANKSEL	_PORTB
	ANDWF	_PORTB,W
;; >>> /home/sdcc-builder/build/sdcc-build/orig/sdcc/src/pic14/gen.c:4192:genAnd
;;	1109 rIdx = r0x1056 
	BANKSEL	r0x101A
	MOVWF	r0x101A
;;; /home/sdcc-builder/build/sdcc-build/orig/sdcc/src/pic14/gen.c:2316:resultRemat *{*
;;; /home/sdcc-builder/build/sdcc-build/orig/sdcc/src/pic14/gen.c:5418:genGenericShift *{*
;; ***	genGenericShift  5421
;;	694 register type nRegs=1
;;	694 register type nRegs=1
;; >>> /home/sdcc-builder/build/sdcc-build/orig/sdcc/src/pic14/gen.c:5306:shiftRight_Left2ResultLit
;;	1109 rIdx = r0x1056 
	SWAPF	r0x101A,W
;; >>> /home/sdcc-builder/build/sdcc-build/orig/sdcc/src/pic14/gen.c:5307:shiftRight_Left2ResultLit
	ANDLW	0x0f
;; >>> /home/sdcc-builder/build/sdcc-build/orig/sdcc/src/pic14/gen.c:5308:shiftRight_Left2ResultLit
;;	1109 rIdx = r0x1057 
	MOVWF	r0x101B
;; ***	addSign  861
;;; /home/sdcc-builder/build/sdcc-build/orig/sdcc/src/pic14/genarith.c:862:addSign *{*
;;; /home/sdcc-builder/build/sdcc-build/orig/sdcc/src/pic14/gen.c:2316:resultRemat *{*
;;; /home/sdcc-builder/build/sdcc-build/orig/sdcc/src/pic14/gen.c:2778:genGoto *{*
;; >>> /home/sdcc-builder/build/sdcc-build/orig/sdcc/src/pic14/gen.c:2780:genGoto
;; ***	popGetLabel  key=6, label offset 47
	.line	118; "SSD.c"	break;
	GOTO	_00153_DS_
;;; /home/sdcc-builder/build/sdcc-build/orig/sdcc/src/pic14/gen.c:2316:resultRemat *{*
;;; /home/sdcc-builder/build/sdcc-build/orig/sdcc/src/pic14/gen.c:2760:genLabel *{*
;; ***	genLabel  2763
;;; /home/sdcc-builder/build/sdcc-build/orig/sdcc/src/pic14/gen.c:2316:resultRemat *{*
;;; /home/sdcc-builder/build/sdcc-build/orig/sdcc/src/pic14/gen.c:3919:genAnd *{*
;; ***	genAnd  3920
;; ***	aopForSym 315
;;	327 sym->rname = _PORTB, size = 1
;;	694 register type nRegs=1
;; 	line = 3955 result AOP_REG=r0x1056, size=1, left AOP_DIR=_PORTB, size=1, right AOP_LIT=0x20, size=1
;; >>> /home/sdcc-builder/build/sdcc-build/orig/sdcc/src/pic14/gen.c:4190:genAnd
_00149_DS_
	.line	120; "SSD.c"	ret = GPIO_ReadPortPin(SSD_MINUTES_TENS_DR, SSD_MINUTES_TENS_PIN);
	MOVLW	0x20
;; >>> /home/sdcc-builder/build/sdcc-build/orig/sdcc/src/pic14/gen.c:4191:genAnd
;;	1009
;;	1028  _PORTB   offset=0
	BANKSEL	_PORTB
	ANDWF	_PORTB,W
;; >>> /home/sdcc-builder/build/sdcc-build/orig/sdcc/src/pic14/gen.c:4192:genAnd
;;	1109 rIdx = r0x1056 
	BANKSEL	r0x101A
	MOVWF	r0x101A
;;; /home/sdcc-builder/build/sdcc-build/orig/sdcc/src/pic14/gen.c:2316:resultRemat *{*
;;; /home/sdcc-builder/build/sdcc-build/orig/sdcc/src/pic14/gen.c:5418:genGenericShift *{*
;; ***	genGenericShift  5421
;;	694 register type nRegs=1
;;	575
;; >>> /home/sdcc-builder/build/sdcc-build/orig/sdcc/src/pic14/gen.c:5306:shiftRight_Left2ResultLit
;;	1109 rIdx = r0x1056 
	SWAPF	r0x101A,W
;; >>> /home/sdcc-builder/build/sdcc-build/orig/sdcc/src/pic14/gen.c:5307:shiftRight_Left2ResultLit
	ANDLW	0x0f
;; >>> /home/sdcc-builder/build/sdcc-build/orig/sdcc/src/pic14/gen.c:5308:shiftRight_Left2ResultLit
;;	1109 rIdx = r0x1057 
	MOVWF	r0x101B
;; ***	addSign  861
;;; /home/sdcc-builder/build/sdcc-build/orig/sdcc/src/pic14/genarith.c:862:addSign *{*
;;shiftRight_Left2ResultLit:5273: shCount=1, size=1, sign=0, same=1, offr=0
;; >>> /home/sdcc-builder/build/sdcc-build/orig/sdcc/src/pic14/gen.c:5283:shiftRight_Left2ResultLit
	BCF	STATUS,0
;; >>> /home/sdcc-builder/build/sdcc-build/orig/sdcc/src/pic14/gen.c:5293:shiftRight_Left2ResultLit
;;	1109 rIdx = r0x1057 
	RRF	r0x101B,F
;; ***	addSign  861
;;; /home/sdcc-builder/build/sdcc-build/orig/sdcc/src/pic14/genarith.c:862:addSign *{*
;;; /home/sdcc-builder/build/sdcc-build/orig/sdcc/src/pic14/gen.c:2316:resultRemat *{*
;;; /home/sdcc-builder/build/sdcc-build/orig/sdcc/src/pic14/gen.c:2778:genGoto *{*
;; >>> /home/sdcc-builder/build/sdcc-build/orig/sdcc/src/pic14/gen.c:2780:genGoto
;; ***	popGetLabel  key=6, label offset 47
	.line	121; "SSD.c"	break;
	GOTO	_00153_DS_
;;; /home/sdcc-builder/build/sdcc-build/orig/sdcc/src/pic14/gen.c:2316:resultRemat *{*
;;; /home/sdcc-builder/build/sdcc-build/orig/sdcc/src/pic14/gen.c:2760:genLabel *{*
;; ***	genLabel  2763
;;; /home/sdcc-builder/build/sdcc-build/orig/sdcc/src/pic14/gen.c:2316:resultRemat *{*
;;; /home/sdcc-builder/build/sdcc-build/orig/sdcc/src/pic14/gen.c:3919:genAnd *{*
;; ***	genAnd  3920
;; ***	aopForSym 315
;;	327 sym->rname = _PORTB, size = 1
;;	694 register type nRegs=1
;; 	line = 3955 result AOP_REG=r0x1056, size=1, left AOP_DIR=_PORTB, size=1, right AOP_LIT=0x40, size=1
;; >>> /home/sdcc-builder/build/sdcc-build/orig/sdcc/src/pic14/gen.c:4190:genAnd
_00150_DS_
	.line	123; "SSD.c"	ret = GPIO_ReadPortPin(SSD_HOURS_UNITS_DR, SSD_HOURS_UNITS_PIN);
	MOVLW	0x40
;; >>> /home/sdcc-builder/build/sdcc-build/orig/sdcc/src/pic14/gen.c:4191:genAnd
;;	1009
;;	1028  _PORTB   offset=0
	BANKSEL	_PORTB
	ANDWF	_PORTB,W
;; >>> /home/sdcc-builder/build/sdcc-build/orig/sdcc/src/pic14/gen.c:4192:genAnd
;;	1109 rIdx = r0x1056 
	BANKSEL	r0x101A
	MOVWF	r0x101A
;;; /home/sdcc-builder/build/sdcc-build/orig/sdcc/src/pic14/gen.c:2316:resultRemat *{*
;;; /home/sdcc-builder/build/sdcc-build/orig/sdcc/src/pic14/gen.c:5418:genGenericShift *{*
;; ***	genGenericShift  5421
;;	694 register type nRegs=1
;;	575
;; >>> /home/sdcc-builder/build/sdcc-build/orig/sdcc/src/pic14/gen.c:5306:shiftRight_Left2ResultLit
;;	1109 rIdx = r0x1056 
	SWAPF	r0x101A,W
;; >>> /home/sdcc-builder/build/sdcc-build/orig/sdcc/src/pic14/gen.c:5307:shiftRight_Left2ResultLit
	ANDLW	0x0f
;; >>> /home/sdcc-builder/build/sdcc-build/orig/sdcc/src/pic14/gen.c:5308:shiftRight_Left2ResultLit
;;	1109 rIdx = r0x1057 
	MOVWF	r0x101B
;; ***	addSign  861
;;; /home/sdcc-builder/build/sdcc-build/orig/sdcc/src/pic14/genarith.c:862:addSign *{*
;;shiftRight_Left2ResultLit:5273: shCount=1, size=1, sign=0, same=1, offr=0
;; >>> /home/sdcc-builder/build/sdcc-build/orig/sdcc/src/pic14/gen.c:5283:shiftRight_Left2ResultLit
	BCF	STATUS,0
;; >>> /home/sdcc-builder/build/sdcc-build/orig/sdcc/src/pic14/gen.c:5293:shiftRight_Left2ResultLit
;;	1109 rIdx = r0x1057 
	RRF	r0x101B,F
;; ***	addSign  861
;;; /home/sdcc-builder/build/sdcc-build/orig/sdcc/src/pic14/genarith.c:862:addSign *{*
;;shiftRight_Left2ResultLit:5273: shCount=1, size=1, sign=0, same=1, offr=0
;; >>> /home/sdcc-builder/build/sdcc-build/orig/sdcc/src/pic14/gen.c:5283:shiftRight_Left2ResultLit
	BCF	STATUS,0
;; >>> /home/sdcc-builder/build/sdcc-build/orig/sdcc/src/pic14/gen.c:5293:shiftRight_Left2ResultLit
;;	1109 rIdx = r0x1057 
	RRF	r0x101B,F
;; ***	addSign  861
;;; /home/sdcc-builder/build/sdcc-build/orig/sdcc/src/pic14/genarith.c:862:addSign *{*
;;; /home/sdcc-builder/build/sdcc-build/orig/sdcc/src/pic14/gen.c:2316:resultRemat *{*
;;; /home/sdcc-builder/build/sdcc-build/orig/sdcc/src/pic14/gen.c:2778:genGoto *{*
;; >>> /home/sdcc-builder/build/sdcc-build/orig/sdcc/src/pic14/gen.c:2780:genGoto
;; ***	popGetLabel  key=6, label offset 47
	.line	124; "SSD.c"	break;
	GOTO	_00153_DS_
;;; /home/sdcc-builder/build/sdcc-build/orig/sdcc/src/pic14/gen.c:2316:resultRemat *{*
;;; /home/sdcc-builder/build/sdcc-build/orig/sdcc/src/pic14/gen.c:2760:genLabel *{*
;; ***	genLabel  2763
;;; /home/sdcc-builder/build/sdcc-build/orig/sdcc/src/pic14/gen.c:2316:resultRemat *{*
;;; /home/sdcc-builder/build/sdcc-build/orig/sdcc/src/pic14/gen.c:3919:genAnd *{*
;; ***	genAnd  3920
;; ***	aopForSym 315
;;	327 sym->rname = _PORTB, size = 1
;;	694 register type nRegs=1
;; 	line = 3955 result AOP_REG=r0x1056, size=1, left AOP_DIR=_PORTB, size=1, right AOP_LIT=0x80, size=1
;; >>> /home/sdcc-builder/build/sdcc-build/orig/sdcc/src/pic14/gen.c:4190:genAnd
_00151_DS_
	.line	126; "SSD.c"	ret = GPIO_ReadPortPin(SSD_HOURS_TENS_DR, SSD_HOURS_TENS_PIN);
	MOVLW	0x80
;; >>> /home/sdcc-builder/build/sdcc-build/orig/sdcc/src/pic14/gen.c:4191:genAnd
;;	1009
;;	1028  _PORTB   offset=0
	BANKSEL	_PORTB
	ANDWF	_PORTB,W
;; >>> /home/sdcc-builder/build/sdcc-build/orig/sdcc/src/pic14/gen.c:4192:genAnd
;;	1109 rIdx = r0x1056 
	BANKSEL	r0x101A
	MOVWF	r0x101A
;;; /home/sdcc-builder/build/sdcc-build/orig/sdcc/src/pic14/gen.c:2316:resultRemat *{*
;;; /home/sdcc-builder/build/sdcc-build/orig/sdcc/src/pic14/gen.c:5418:genGenericShift *{*
;; ***	genGenericShift  5421
;;	694 register type nRegs=1
;;	575
;; >>> /home/sdcc-builder/build/sdcc-build/orig/sdcc/src/pic14/gen.c:5329:shiftRight_Left2ResultLit
;;	1109 rIdx = r0x1056 
	RLF	r0x101A,W
;; >>> /home/sdcc-builder/build/sdcc-build/orig/sdcc/src/pic14/gen.c:5335:shiftRight_Left2ResultLit
;;	1109 rIdx = r0x1057 
	CLRF	r0x101B
;; >>> /home/sdcc-builder/build/sdcc-build/orig/sdcc/src/pic14/gen.c:5338:shiftRight_Left2ResultLit
;;	1109 rIdx = r0x1057 
	RLF	r0x101B,F
;; ***	addSign  861
;;; /home/sdcc-builder/build/sdcc-build/orig/sdcc/src/pic14/genarith.c:862:addSign *{*
;;; /home/sdcc-builder/build/sdcc-build/orig/sdcc/src/pic14/gen.c:2316:resultRemat *{*
;;; /home/sdcc-builder/build/sdcc-build/orig/sdcc/src/pic14/gen.c:2760:genLabel *{*
;; ***	genLabel  2763
;;; /home/sdcc-builder/build/sdcc-build/orig/sdcc/src/pic14/gen.c:2316:resultRemat *{*
;;; /home/sdcc-builder/build/sdcc-build/orig/sdcc/src/pic14/gen.c:2683:genRet *{*
;; ***	genRet  2685
;;	575
;;; /home/sdcc-builder/build/sdcc-build/orig/sdcc/src/pic14/gen.c:1343:mov2w_op *{*
;; ***	mov2w  1381  offset=0
;; >>> /home/sdcc-builder/build/sdcc-build/orig/sdcc/src/pic14/gen.c:1386:mov2w
;;	1109 rIdx = r0x1057 
_00153_DS_
	.line	133; "SSD.c"	return ret;
	BANKSEL	r0x101B
	MOVF	r0x101B,W
;;; /home/sdcc-builder/build/sdcc-build/orig/sdcc/src/pic14/gen.c:2316:resultRemat *{*
;;; /home/sdcc-builder/build/sdcc-build/orig/sdcc/src/pic14/gen.c:2760:genLabel *{*
;; ***	genLabel  2763
;;; /home/sdcc-builder/build/sdcc-build/orig/sdcc/src/pic14/gen.c:2316:resultRemat *{*
;;; /home/sdcc-builder/build/sdcc-build/orig/sdcc/src/pic14/gen.c:2528:genEndFunction *{*
;; ***	genEndFunction  2530
	RETURN	
; exit point of _SSD_GetState
;;; /home/sdcc-builder/build/sdcc-build/orig/sdcc/src/pic14/gen.c:7426:genpic14Code *{*

;***
;  pBlock Stats: dbName = C
;***
;entry:  _SSD_SetValue	;Function start
; 2 exit points
;has an exit
;4 compiler assigned registers:
;   r0x101C
;   STK00
;   r0x101D
;   r0x101E
;; Starting pCode block
;;; /home/sdcc-builder/build/sdcc-build/orig/sdcc/src/pic14/gen.c:2316:resultRemat *{*
;;; /home/sdcc-builder/build/sdcc-build/orig/sdcc/src/pic14/gen.c:2760:genLabel *{*
;; ***	genLabel  2763
;;; /home/sdcc-builder/build/sdcc-build/orig/sdcc/src/pic14/gen.c:2316:resultRemat *{*
;;; /home/sdcc-builder/build/sdcc-build/orig/sdcc/src/pic14/gen.c:2340:genFunction *{*
;; ***	genFunction  2342 curr label offset=39previous max_key=0 
_SSD_SetValue	;Function start
; 2 exit points
;;; /home/sdcc-builder/build/sdcc-build/orig/sdcc/src/pic14/gen.c:2316:resultRemat *{*
;;; /home/sdcc-builder/build/sdcc-build/orig/sdcc/src/pic14/gen.c:7358:genReceive *{*
;; ***	genReceive  7359
;;	694 register type nRegs=1
;;; /home/sdcc-builder/build/sdcc-build/orig/sdcc/src/pic14/gen.c:1907:assignResultValue *{*
;; ***	assignResultValue  1909
;; 	line = 1911 result -=-, size=0, left AOP_REG=r0x1053, size=1, right -=-, size=0
;; >>> /home/sdcc-builder/build/sdcc-build/orig/sdcc/src/pic14/gen.c:1393:movwf
;;	1109 rIdx = r0x1053 
	.line	103; "SSD.c"	void SSD_SetValue(tSSD ssd, tSSD_Symbol ssd_symbol)
	BANKSEL	r0x101C
	MOVWF	r0x101C
;;; /home/sdcc-builder/build/sdcc-build/orig/sdcc/src/pic14/gen.c:2316:resultRemat *{*
;;; /home/sdcc-builder/build/sdcc-build/orig/sdcc/src/pic14/gen.c:7358:genReceive *{*
;; ***	genReceive  7359
;;	694 register type nRegs=1
;;; /home/sdcc-builder/build/sdcc-build/orig/sdcc/src/pic14/gen.c:1907:assignResultValue *{*
;; ***	assignResultValue  1909
;; 	line = 1911 result -=-, size=0, left AOP_REG=r0x1054, size=1, right -=-, size=0
;; >>> /home/sdcc-builder/build/sdcc-build/orig/sdcc/src/pic14/gen.c:1423:get_returnvalue
;; ***	popRegFromIdx,1042  , rIdx=0x7f
	MOVF	STK00,W
;; >>> /home/sdcc-builder/build/sdcc-build/orig/sdcc/src/pic14/gen.c:1393:movwf
;;	1109 rIdx = r0x1054 
	MOVWF	r0x101D
;;; /home/sdcc-builder/build/sdcc-build/orig/sdcc/src/pic14/gen.c:2316:resultRemat *{*
;;; /home/sdcc-builder/build/sdcc-build/orig/sdcc/src/pic14/gen.c:2316:resultRemat *{*
;; ***	genPlus  611
;;; /home/sdcc-builder/build/sdcc-build/orig/sdcc/src/pic14/genarith.c:612:genPlus *{*
;;	613
;;	aopForRemat 392
;;	418: rname _SSD_Values, val 0, const = 0
;;	694 register type nRegs=1
;;	694 register type nRegs=2
;;	833: aopGet AOP_PCODE type PO_IMMEDIATE
;;	_SSD_Values
;; 	line = 618 result AOP_REG=r0x1053, size=2, left AOP_PCODE=_SSD_Values, size=2, right AOP_REG=r0x1053, size=1
;;; /home/sdcc-builder/build/sdcc-build/orig/sdcc/src/pic14/genarith.c:142:genPlusIncr *{*
;; ***	genPlusIncr  144
;; 	result AOP_REG, left AOP_PCODE, right AOP_REG
;; ***	genPlus  717
;;	833: aopGet AOP_PCODE type PO_IMMEDIATE
;;	_SSD_Values
;; >>> /home/sdcc-builder/build/sdcc-build/orig/sdcc/src/pic14/genarith.c:726:genPlus
;;	1109 rIdx = r0x1053 
	.line	106; "SSD.c"	SSD_Values[ssd] = ssd_symbol;
	MOVF	r0x101C,W
;; >>> /home/sdcc-builder/build/sdcc-build/orig/sdcc/src/pic14/genarith.c:735:genPlus
	ADDLW	(_SSD_Values + 0)
;; >>> /home/sdcc-builder/build/sdcc-build/orig/sdcc/src/pic14/genarith.c:736:genPlus
;;	1109 rIdx = r0x1053 
	MOVWF	r0x101C
;; >>> /home/sdcc-builder/build/sdcc-build/orig/sdcc/src/pic14/genarith.c:799:genPlus
	MOVLW	high (_SSD_Values + 0)
;; >>> /home/sdcc-builder/build/sdcc-build/orig/sdcc/src/pic14/genarith.c:800:genPlus
	BTFSC	STATUS,0
;; >>> /home/sdcc-builder/build/sdcc-build/orig/sdcc/src/pic14/genarith.c:801:genPlus
	ADDLW	0x01
;; >>> /home/sdcc-builder/build/sdcc-build/orig/sdcc/src/pic14/genarith.c:802:genPlus
;;	1109 rIdx = r0x1055 
	MOVWF	r0x101E
;;; /home/sdcc-builder/build/sdcc-build/orig/sdcc/src/pic14/gen.c:2316:resultRemat *{*
;;; /home/sdcc-builder/build/sdcc-build/orig/sdcc/src/pic14/gen.c:6686:genPointerSet *{*
;; ***	genPointerSet  6687
;;; /home/sdcc-builder/build/sdcc-build/orig/sdcc/src/pic14/gen.c:6505:genNearPointerSet *{*
;; ***	genNearPointerSet  6506
;;	694 register type nRegs=2
;; ***	genNearPointerSet  6521
;;	694 register type nRegs=1
;; 	line = 6523 result AOP_REG=r0x1053, size=2, left -=-, size=0, right AOP_REG=r0x1054, size=1
;;; /home/sdcc-builder/build/sdcc-build/orig/sdcc/src/pic14/gen.c:1343:mov2w_op *{*
;; ***	mov2w  1381  offset=0
;; >>> /home/sdcc-builder/build/sdcc-build/orig/sdcc/src/pic14/gen.c:1386:mov2w
;;	1109 rIdx = r0x1053 
	MOVF	r0x101C,W
;; >>> /home/sdcc-builder/build/sdcc-build/orig/sdcc/src/pic14/gen.c:5602:setup_fsr
	BANKSEL	FSR
	MOVWF	FSR
;;; /home/sdcc-builder/build/sdcc-build/orig/sdcc/src/pic14/gen.c:5553:SetIrp *{*
;; >>> /home/sdcc-builder/build/sdcc-build/orig/sdcc/src/pic14/gen.c:5580:SetIrp
	BCF	STATUS,7
;; >>> /home/sdcc-builder/build/sdcc-build/orig/sdcc/src/pic14/gen.c:5583:SetIrp
	BANKSEL	r0x101E
	BTFSC	r0x101E,0
;; >>> /home/sdcc-builder/build/sdcc-build/orig/sdcc/src/pic14/gen.c:5584:SetIrp
	BSF	STATUS,7
;; ***	genNearPointerSet  6548
;; >>> /home/sdcc-builder/build/sdcc-build/orig/sdcc/src/pic14/gen.c:6564:genNearPointerSet
;;	1109 rIdx = r0x1054 
	MOVF	r0x101D,W
;; >>> /home/sdcc-builder/build/sdcc-build/orig/sdcc/src/pic14/gen.c:6569:genNearPointerSet
	BANKSEL	INDF
	MOVWF	INDF
;; ***	genNearPointerSet  6577
;; ***	genNearPointerSet  6603
;;; /home/sdcc-builder/build/sdcc-build/orig/sdcc/src/pic14/gen.c:2316:resultRemat *{*
;;; /home/sdcc-builder/build/sdcc-build/orig/sdcc/src/pic14/gen.c:2760:genLabel *{*
;; ***	genLabel  2763
;;; /home/sdcc-builder/build/sdcc-build/orig/sdcc/src/pic14/gen.c:2316:resultRemat *{*
;;; /home/sdcc-builder/build/sdcc-build/orig/sdcc/src/pic14/gen.c:2528:genEndFunction *{*
;; ***	genEndFunction  2530
	RETURN	
; exit point of _SSD_SetValue
;;; /home/sdcc-builder/build/sdcc-build/orig/sdcc/src/pic14/gen.c:7426:genpic14Code *{*

;***
;  pBlock Stats: dbName = C
;***
;entry:  _SSD_GetValue	;Function start
; 2 exit points
;has an exit
;3 compiler assigned registers:
;   r0x101F
;   r0x1020
;   r0x1021
;; Starting pCode block
;;; /home/sdcc-builder/build/sdcc-build/orig/sdcc/src/pic14/gen.c:2316:resultRemat *{*
;;; /home/sdcc-builder/build/sdcc-build/orig/sdcc/src/pic14/gen.c:2760:genLabel *{*
;; ***	genLabel  2763
;;; /home/sdcc-builder/build/sdcc-build/orig/sdcc/src/pic14/gen.c:2316:resultRemat *{*
;;; /home/sdcc-builder/build/sdcc-build/orig/sdcc/src/pic14/gen.c:2340:genFunction *{*
;; ***	genFunction  2342 curr label offset=21previous max_key=14 
_SSD_GetValue	;Function start
; 2 exit points
;;; /home/sdcc-builder/build/sdcc-build/orig/sdcc/src/pic14/gen.c:2316:resultRemat *{*
;;; /home/sdcc-builder/build/sdcc-build/orig/sdcc/src/pic14/gen.c:7358:genReceive *{*
;; ***	genReceive  7359
;;	694 register type nRegs=1
;;; /home/sdcc-builder/build/sdcc-build/orig/sdcc/src/pic14/gen.c:1907:assignResultValue *{*
;; ***	assignResultValue  1909
;; 	line = 1911 result -=-, size=0, left AOP_REG=r0x1050, size=1, right -=-, size=0
;; >>> /home/sdcc-builder/build/sdcc-build/orig/sdcc/src/pic14/gen.c:1393:movwf
;;	1109 rIdx = r0x1050 
	.line	97; "SSD.c"	tSSD_Symbol SSD_GetValue(tSSD ssd)
	BANKSEL	r0x101F
	MOVWF	r0x101F
	.line	100; "SSD.c"	return SSD_Values[ssd];
	ADDLW	(_SSD_Values + 0)
;; >>> /home/sdcc-builder/build/sdcc-build/orig/sdcc/src/pic14/genarith.c:736:genPlus
;;	1109 rIdx = r0x1050 
	MOVWF	r0x101F
;; >>> /home/sdcc-builder/build/sdcc-build/orig/sdcc/src/pic14/genarith.c:799:genPlus
	MOVLW	high (_SSD_Values + 0)
;; >>> /home/sdcc-builder/build/sdcc-build/orig/sdcc/src/pic14/genarith.c:800:genPlus
	BTFSC	STATUS,0
;; >>> /home/sdcc-builder/build/sdcc-build/orig/sdcc/src/pic14/genarith.c:801:genPlus
	ADDLW	0x01
;; >>> /home/sdcc-builder/build/sdcc-build/orig/sdcc/src/pic14/genarith.c:802:genPlus
;;	1109 rIdx = r0x1051 
	MOVWF	r0x1020
;;; /home/sdcc-builder/build/sdcc-build/orig/sdcc/src/pic14/gen.c:2316:resultRemat *{*
;;; /home/sdcc-builder/build/sdcc-build/orig/sdcc/src/pic14/gen.c:6162:genPointerGet *{*
;; ***	genPointerGet  6163
;;; /home/sdcc-builder/build/sdcc-build/orig/sdcc/src/pic14/gen.c:5944:genNearPointerGet *{*
;; ***	genNearPointerGet  5945
;;	694 register type nRegs=2
;; ***	genNearPointerGet  5961
;;	694 register type nRegs=1
;;; /home/sdcc-builder/build/sdcc-build/orig/sdcc/src/pic14/gen.c:1343:mov2w_op *{*
;; ***	mov2w  1381  offset=0
;; >>> /home/sdcc-builder/build/sdcc-build/orig/sdcc/src/pic14/gen.c:1386:mov2w
;;	1109 rIdx = r0x1050 
	MOVF	r0x101F,W
;; >>> /home/sdcc-builder/build/sdcc-build/orig/sdcc/src/pic14/gen.c:5602:setup_fsr
	BANKSEL	FSR
	MOVWF	FSR
;;; /home/sdcc-builder/build/sdcc-build/orig/sdcc/src/pic14/gen.c:5553:SetIrp *{*
;; >>> /home/sdcc-builder/build/sdcc-build/orig/sdcc/src/pic14/gen.c:5580:SetIrp
	BCF	STATUS,7
;; >>> /home/sdcc-builder/build/sdcc-build/orig/sdcc/src/pic14/gen.c:5583:SetIrp
	BANKSEL	r0x1020
	BTFSC	r0x1020,0
;; >>> /home/sdcc-builder/build/sdcc-build/orig/sdcc/src/pic14/gen.c:5584:SetIrp
	BSF	STATUS,7
;; ***	genNearPointerGet  5988
;; >>> /home/sdcc-builder/build/sdcc-build/orig/sdcc/src/pic14/gen.c:5995:genNearPointerGet
	BANKSEL	INDF
	MOVF	INDF,W
;; >>> /home/sdcc-builder/build/sdcc-build/orig/sdcc/src/pic14/gen.c:6002:genNearPointerGet
;;	1109 rIdx = r0x1052 
;;1	MOVWF	r0x1021
	RETURN	
; exit point of _SSD_GetValue
;;; /home/sdcc-builder/build/sdcc-build/orig/sdcc/src/pic14/gen.c:7426:genpic14Code *{*

;***
;  pBlock Stats: dbName = C
;***
;entry:  _SSD_Update	;Function start
; 2 exit points
;has an exit
;functions called:
;   _SSD_Out
;   _SSD_Out
;4 compiler assigned registers:
;   r0x1022
;   r0x1023
;   r0x1024
;   STK00
;; Starting pCode block
;;; /home/sdcc-builder/build/sdcc-build/orig/sdcc/src/pic14/gen.c:2316:resultRemat *{*
;;; /home/sdcc-builder/build/sdcc-build/orig/sdcc/src/pic14/gen.c:2760:genLabel *{*
;; ***	genLabel  2763
;;; /home/sdcc-builder/build/sdcc-build/orig/sdcc/src/pic14/gen.c:2316:resultRemat *{*
;;; /home/sdcc-builder/build/sdcc-build/orig/sdcc/src/pic14/gen.c:2340:genFunction *{*
;; ***	genFunction  2342 curr label offset=4previous max_key=13 
_SSD_Update	;Function start
; 2 exit points
;;; /home/sdcc-builder/build/sdcc-build/orig/sdcc/src/pic14/gen.c:2316:resultRemat *{*
;; ***	genPlus  611
;;; /home/sdcc-builder/build/sdcc-build/orig/sdcc/src/pic14/genarith.c:612:genPlus *{*
;; ***	aopForSym 315
;;	327 sym->rname = _SSD_Update_SSD_counter_1_18, size = 2
;;	575
;; 	line = 618 result AOP_DIR=_SSD_Update_SSD_counter_1_18, size=2, left AOP_DIR=_SSD_Update_SSD_counter_1_18, size=2, right AOP_LIT=0x05, size=2
;;; /home/sdcc-builder/build/sdcc-build/orig/sdcc/src/pic14/genarith.c:142:genPlusIncr *{*
;; ***	genPlusIncr  144
;; 	result AOP_DIR, left AOP_DIR, right AOP_LIT
;; 	genPlusIncr  156
;;	adding lit to something. size 2
;;; /home/sdcc-builder/build/sdcc-build/orig/sdcc/src/pic14/genarith.c:269:genAddLit *{*
;; ***	genAddLit  270
;; hi = 0	genAddLit  328
;; >>> /home/sdcc-builder/build/sdcc-build/orig/sdcc/src/pic14/genarith.c:344:genAddLit
	.line	75; "SSD.c"	SSD_counter += TMR_TICK_MS;
	MOVLW	0x05
;; >>> /home/sdcc-builder/build/sdcc-build/orig/sdcc/src/pic14/genarith.c:345:genAddLit
;;	1009
;;	1028  _SSD_Update_SSD_counter_1_18   offset=0
	BANKSEL	_SSD_Update_SSD_counter_1_18
	ADDWF	_SSD_Update_SSD_counter_1_18,F
;; >>> /home/sdcc-builder/build/sdcc-build/orig/sdcc/src/pic14/genarith.c:346:genAddLit
	BTFSC	STATUS,0
;; >>> /home/sdcc-builder/build/sdcc-build/orig/sdcc/src/pic14/genarith.c:347:genAddLit
;;	1009
;;	1028  _SSD_Update_SSD_counter_1_18   offset=1
	INCF	(_SSD_Update_SSD_counter_1_18 + 1),F
;; ***	addSign  861
;;; /home/sdcc-builder/build/sdcc-build/orig/sdcc/src/pic14/genarith.c:862:addSign *{*
;;; /home/sdcc-builder/build/sdcc-build/orig/sdcc/src/pic14/gen.c:2316:resultRemat *{*
;;; /home/sdcc-builder/build/sdcc-build/orig/sdcc/src/pic14/gen.c:3619:genCmpEq *{*
;; ***	genCmpEq  3620
;; ifx is non-null
;; ***	aopForSym 315
;;	327 sym->rname = _SSD_Update_SSD_counter_1_18, size = 2
;; 	line = 3631 result AOP_CRY=0x00, size=0, left AOP_DIR=_SSD_Update_SSD_counter_1_18, size=2, right AOP_LIT=0x05, size=2
;; ***	mov2w  1381  offset=0
;; >>> /home/sdcc-builder/build/sdcc-build/orig/sdcc/src/pic14/gen.c:1386:mov2w
;;	1009
;;	1028  _SSD_Update_SSD_counter_1_18   offset=0
	.line	77; "SSD.c"	if (SSD_counter != SSD_PERIOD_MS){
	MOVF	_SSD_Update_SSD_counter_1_18,W
;; >>> /home/sdcc-builder/build/sdcc-build/orig/sdcc/src/pic14/gen.c:3685:genCmpEq
	XORLW	0x05
;; >>> /home/sdcc-builder/build/sdcc-build/orig/sdcc/src/pic14/gen.c:3687:genCmpEq
	BTFSS	STATUS,2
;; >>> /home/sdcc-builder/build/sdcc-build/orig/sdcc/src/pic14/gen.c:3690:genCmpEq
;; ***	popGetLabel  key=14, label offset 21
	GOTO	_00135_DS_
;; ***	mov2w  1381  offset=1
;; >>> /home/sdcc-builder/build/sdcc-build/orig/sdcc/src/pic14/gen.c:1386:mov2w
;;	1009
;;	1028  _SSD_Update_SSD_counter_1_18   offset=1
	MOVF	(_SSD_Update_SSD_counter_1_18 + 1),W
;; >>> /home/sdcc-builder/build/sdcc-build/orig/sdcc/src/pic14/gen.c:3685:genCmpEq
	.line	78; "SSD.c"	return;
	XORLW	0x00
	.line	81; "SSD.c"	SSD_counter = 0;
	BTFSS	STATUS,2
_00135_DS_
	GOTO	_00127_DS_
	BANKSEL	_SSD_Update_SSD_counter_1_18
	CLRF	_SSD_Update_SSD_counter_1_18
	CLRF	(_SSD_Update_SSD_counter_1_18 + 1)
;;; /home/sdcc-builder/build/sdcc-build/orig/sdcc/src/pic14/gen.c:2316:resultRemat *{*
;;; /home/sdcc-builder/build/sdcc-build/orig/sdcc/src/pic14/gen.c:2316:resultRemat *{*
;; ***	genPlus  611
;;; /home/sdcc-builder/build/sdcc-build/orig/sdcc/src/pic14/genarith.c:612:genPlus *{*
;;	613
;;	aopForRemat 392
;;	418: rname _SSD_Values, val 0, const = 0
;; ***	aopForSym 315
;;	327 sym->rname = _SSD_current, size = 1
;;	694 register type nRegs=2
;;	833: aopGet AOP_PCODE type PO_IMMEDIATE
;;	_SSD_Values
;; 	line = 618 result AOP_REG=r0x104C, size=2, left AOP_PCODE=_SSD_Values, size=2, right AOP_DIR=_SSD_current, size=1
;;; /home/sdcc-builder/build/sdcc-build/orig/sdcc/src/pic14/genarith.c:142:genPlusIncr *{*
;; ***	genPlusIncr  144
;; 	result AOP_REG, left AOP_PCODE, right AOP_DIR
;; ***	genPlus  717
;;	833: aopGet AOP_PCODE type PO_IMMEDIATE
;;	_SSD_Values
;; >>> /home/sdcc-builder/build/sdcc-build/orig/sdcc/src/pic14/genarith.c:726:genPlus
;;	1009
;;	1028  _SSD_current   offset=0
	.line	85; "SSD.c"	SSD_Out(SSD_current, SSD_Values[SSD_current]);
	BANKSEL	_SSD_current
	MOVF	_SSD_current,W
;; >>> /home/sdcc-builder/build/sdcc-build/orig/sdcc/src/pic14/genarith.c:735:genPlus
	ADDLW	(_SSD_Values + 0)
;; >>> /home/sdcc-builder/build/sdcc-build/orig/sdcc/src/pic14/genarith.c:736:genPlus
;;	1109 rIdx = r0x104C 
	BANKSEL	r0x1022
	MOVWF	r0x1022
;; >>> /home/sdcc-builder/build/sdcc-build/orig/sdcc/src/pic14/genarith.c:799:genPlus
	MOVLW	high (_SSD_Values + 0)
;; >>> /home/sdcc-builder/build/sdcc-build/orig/sdcc/src/pic14/genarith.c:800:genPlus
	BTFSC	STATUS,0
;; >>> /home/sdcc-builder/build/sdcc-build/orig/sdcc/src/pic14/genarith.c:801:genPlus
	ADDLW	0x01
;; >>> /home/sdcc-builder/build/sdcc-build/orig/sdcc/src/pic14/genarith.c:802:genPlus
;;	1109 rIdx = r0x104D 
	MOVWF	r0x1023
;;; /home/sdcc-builder/build/sdcc-build/orig/sdcc/src/pic14/gen.c:2316:resultRemat *{*
;;; /home/sdcc-builder/build/sdcc-build/orig/sdcc/src/pic14/gen.c:6162:genPointerGet *{*
;; ***	genPointerGet  6163
;;; /home/sdcc-builder/build/sdcc-build/orig/sdcc/src/pic14/gen.c:5944:genNearPointerGet *{*
;; ***	genNearPointerGet  5945
;;	694 register type nRegs=2
;; ***	genNearPointerGet  5961
;;	694 register type nRegs=1
;;; /home/sdcc-builder/build/sdcc-build/orig/sdcc/src/pic14/gen.c:1343:mov2w_op *{*
;; ***	mov2w  1381  offset=0
;; >>> /home/sdcc-builder/build/sdcc-build/orig/sdcc/src/pic14/gen.c:1386:mov2w
;;	1109 rIdx = r0x104C 
	MOVF	r0x1022,W
;; >>> /home/sdcc-builder/build/sdcc-build/orig/sdcc/src/pic14/gen.c:5602:setup_fsr
	BANKSEL	FSR
	MOVWF	FSR
;;; /home/sdcc-builder/build/sdcc-build/orig/sdcc/src/pic14/gen.c:5553:SetIrp *{*
;; >>> /home/sdcc-builder/build/sdcc-build/orig/sdcc/src/pic14/gen.c:5580:SetIrp
	BCF	STATUS,7
;; >>> /home/sdcc-builder/build/sdcc-build/orig/sdcc/src/pic14/gen.c:5583:SetIrp
	BANKSEL	r0x1023
	BTFSC	r0x1023,0
;; >>> /home/sdcc-builder/build/sdcc-build/orig/sdcc/src/pic14/gen.c:5584:SetIrp
	BSF	STATUS,7
;; ***	genNearPointerGet  5988
;; >>> /home/sdcc-builder/build/sdcc-build/orig/sdcc/src/pic14/gen.c:5995:genNearPointerGet
	BANKSEL	INDF
	MOVF	INDF,W
;; >>> /home/sdcc-builder/build/sdcc-build/orig/sdcc/src/pic14/gen.c:6002:genNearPointerGet
;;	1109 rIdx = r0x104E 
;;1	MOVWF	r0x1024
	MOVWF	STK00
;;; /home/sdcc-builder/build/sdcc-build/orig/sdcc/src/pic14/gen.c:1343:mov2w_op *{*
;; ***	mov2w  1381  offset=0
;; >>> /home/sdcc-builder/build/sdcc-build/orig/sdcc/src/pic14/gen.c:1386:mov2w
;;	1009
;;	1028  _SSD_current   offset=0
	BANKSEL	_SSD_current
	MOVF	_SSD_current,W
;; >>> /home/sdcc-builder/build/sdcc-build/orig/sdcc/src/pic14/gen.c:2175:genCall
	CALL	_SSD_Out
;;; /home/sdcc-builder/build/sdcc-build/orig/sdcc/src/pic14/gen.c:1845:unsaveRegisters *{*
;; ***	unsaveRegisters  1847
;;; /home/sdcc-builder/build/sdcc-build/orig/sdcc/src/pic14/gen.c:2316:resultRemat *{*
;;; /home/sdcc-builder/build/sdcc-build/orig/sdcc/src/pic14/gen.c:3619:genCmpEq *{*
;; ***	genCmpEq  3620
;; ifx is non-null
;; ***	aopForSym 315
;;	327 sym->rname = _SSD_current, size = 1
;; 	line = 3631 result AOP_CRY=0x00, size=0, left AOP_DIR=_SSD_current, size=1, right AOP_LIT=0x03, size=1
;; ***	mov2w  1381  offset=0
;; >>> /home/sdcc-builder/build/sdcc-build/orig/sdcc/src/pic14/gen.c:1386:mov2w
;;	1009
;;	1028  _SSD_current   offset=0
	.line	87; "SSD.c"	if (SSD_current == SSD_HOURS_TENS)
	BANKSEL	_SSD_current
	MOVF	_SSD_current,W
;; >>> /home/sdcc-builder/build/sdcc-build/orig/sdcc/src/pic14/gen.c:3685:genCmpEq
	XORLW	0x03
;; >>> /home/sdcc-builder/build/sdcc-build/orig/sdcc/src/pic14/gen.c:3687:genCmpEq
	BTFSS	STATUS,2
;; >>> /home/sdcc-builder/build/sdcc-build/orig/sdcc/src/pic14/gen.c:3690:genCmpEq
;; ***	popGetLabel  key=4, label offset 21
	GOTO	_00125_DS_
;;; /home/sdcc-builder/build/sdcc-build/orig/sdcc/src/pic14/gen.c:2316:resultRemat *{*
;;; /home/sdcc-builder/build/sdcc-build/orig/sdcc/src/pic14/gen.c:2316:resultRemat *{*
;;; /home/sdcc-builder/build/sdcc-build/orig/sdcc/src/pic14/gen.c:6927:genAssign *{*
;; ***	genAssign  6928
;; ***	aopForSym 315
;;	327 sym->rname = _SSD_current, size = 1
;; 	line = 6937 result AOP_DIR=_SSD_current, size=1, left -=-, size=0, right AOP_LIT=0x00, size=1
;; ***	genAssign  7023
;; >>> /home/sdcc-builder/build/sdcc-build/orig/sdcc/src/pic14/gen.c:7035:genAssign
;;	1009
;;	1028  _SSD_current   offset=0
	.line	89; "SSD.c"	SSD_current = SSD_MINUTES_UNITS;
	CLRF	_SSD_current
;;; /home/sdcc-builder/build/sdcc-build/orig/sdcc/src/pic14/gen.c:2316:resultRemat *{*
;;; /home/sdcc-builder/build/sdcc-build/orig/sdcc/src/pic14/gen.c:2778:genGoto *{*
;; >>> /home/sdcc-builder/build/sdcc-build/orig/sdcc/src/pic14/gen.c:2780:genGoto
;; ***	popGetLabel  key=6, label offset 21
	GOTO	_00127_DS_
;;; /home/sdcc-builder/build/sdcc-build/orig/sdcc/src/pic14/gen.c:2316:resultRemat *{*
;;; /home/sdcc-builder/build/sdcc-build/orig/sdcc/src/pic14/gen.c:2760:genLabel *{*
;; ***	genLabel  2763
;;; /home/sdcc-builder/build/sdcc-build/orig/sdcc/src/pic14/gen.c:2316:resultRemat *{*
;; ***	genPlus  611
;;; /home/sdcc-builder/build/sdcc-build/orig/sdcc/src/pic14/genarith.c:612:genPlus *{*
;; ***	aopForSym 315
;;	327 sym->rname = _SSD_current, size = 1
;; 	line = 618 result AOP_DIR=_SSD_current, size=1, left AOP_DIR=_SSD_current, size=1, right AOP_LIT=0x01, size=1
;;; /home/sdcc-builder/build/sdcc-build/orig/sdcc/src/pic14/genarith.c:142:genPlusIncr *{*
;; ***	genPlusIncr  144
;; 	result AOP_DIR, left AOP_DIR, right AOP_LIT
;; 	genPlusIncr  156
;; >>> /home/sdcc-builder/build/sdcc-build/orig/sdcc/src/pic14/genarith.c:168:genPlusIncr
;;	1009
;;	1028  _SSD_current   offset=0
_00125_DS_
	.line	93; "SSD.c"	SSD_current++;
	BANKSEL	_SSD_current
	INCF	_SSD_current,F
;;; /home/sdcc-builder/build/sdcc-build/orig/sdcc/src/pic14/gen.c:2316:resultRemat *{*
;;; /home/sdcc-builder/build/sdcc-build/orig/sdcc/src/pic14/gen.c:2760:genLabel *{*
;; ***	genLabel  2763
;;; /home/sdcc-builder/build/sdcc-build/orig/sdcc/src/pic14/gen.c:2316:resultRemat *{*
;;; /home/sdcc-builder/build/sdcc-build/orig/sdcc/src/pic14/gen.c:2528:genEndFunction *{*
;; ***	genEndFunction  2530
_00127_DS_
	RETURN	
; exit point of _SSD_Update
;;; /home/sdcc-builder/build/sdcc-build/orig/sdcc/src/pic14/gen.c:7426:genpic14Code *{*

;***
;  pBlock Stats: dbName = C
;***
;entry:  _SSD_Init	;Function start
; 2 exit points
;has an exit
;functions called:
;   _SSD_Out
;   _SSD_SetState
;   _SSD_Out
;   _SSD_SetState
;3 compiler assigned registers:
;   r0x1025
;   STK00
;   r0x1026
;; Starting pCode block
;;; /home/sdcc-builder/build/sdcc-build/orig/sdcc/src/pic14/gen.c:2316:resultRemat *{*
;;; /home/sdcc-builder/build/sdcc-build/orig/sdcc/src/pic14/gen.c:2760:genLabel *{*
;; ***	genLabel  2763
;;; /home/sdcc-builder/build/sdcc-build/orig/sdcc/src/pic14/gen.c:2316:resultRemat *{*
;;; /home/sdcc-builder/build/sdcc-build/orig/sdcc/src/pic14/gen.c:2340:genFunction *{*
;; ***	genFunction  2342 curr label offset=0previous max_key=0 
_SSD_Init	;Function start
; 2 exit points
;;; /home/sdcc-builder/build/sdcc-build/orig/sdcc/src/pic14/gen.c:2316:resultRemat *{*
;;; /home/sdcc-builder/build/sdcc-build/orig/sdcc/src/pic14/gen.c:7358:genReceive *{*
;; ***	genReceive  7359
;;	694 register type nRegs=1
;;; /home/sdcc-builder/build/sdcc-build/orig/sdcc/src/pic14/gen.c:1907:assignResultValue *{*
;; ***	assignResultValue  1909
;; 	line = 1911 result -=-, size=0, left AOP_REG=r0x1048, size=1, right -=-, size=0
;; >>> /home/sdcc-builder/build/sdcc-build/orig/sdcc/src/pic14/gen.c:1393:movwf
;;	1109 rIdx = r0x1048 
	.line	39; "SSD.c"	void SSD_Init(tSSD ssd)
	BANKSEL	r0x1025
	MOVWF	r0x1025
;;; /home/sdcc-builder/build/sdcc-build/orig/sdcc/src/pic14/gen.c:2316:resultRemat *{*
;;; /home/sdcc-builder/build/sdcc-build/orig/sdcc/src/pic14/gen.c:6927:genAssign *{*
;; ***	genAssign  6928
;; ***	aopForSym 315
;;	327 sym->rname = _TRISD, size = 1
;; 	line = 6937 result AOP_DIR=_TRISD, size=1, left -=-, size=0, right AOP_LIT=0x00, size=1
;; ***	genAssign  7023
;; >>> /home/sdcc-builder/build/sdcc-build/orig/sdcc/src/pic14/gen.c:7035:genAssign
;;	1009
;;	1028  _TRISD   offset=0
	.line	43; "SSD.c"	GPIO_InitPort(SSD_DATA_PORT_CR, GPIO_OUT);
	BANKSEL	_TRISD
	CLRF	_TRISD
;;; /home/sdcc-builder/build/sdcc-build/orig/sdcc/src/pic14/gen.c:2316:resultRemat *{*
;;; /home/sdcc-builder/build/sdcc-build/orig/sdcc/src/pic14/gen.c:2316:resultRemat *{*
;;; /home/sdcc-builder/build/sdcc-build/orig/sdcc/src/pic14/gen.c:2316:resultRemat *{*
;;; /home/sdcc-builder/build/sdcc-build/orig/sdcc/src/pic14/gen.c:2086:genCall *{*
;; ***	genCall  2088
;;; /home/sdcc-builder/build/sdcc-build/orig/sdcc/src/pic14/gen.c:1801:saveRegisters *{*
;; ***	saveRegisters  1803
;;	694 register type nRegs=1
;; 	2135 left AOP_LIT
;;; /home/sdcc-builder/build/sdcc-build/orig/sdcc/src/pic14/gen.c:1343:mov2w_op *{*
;; >>> /home/sdcc-builder/build/sdcc-build/orig/sdcc/src/pic14/gen.c:1361:mov2w_op
	.line	44; "SSD.c"	SSD_Out(ssd, SSD_NULL);
	MOVLW	0x0a
;;	694 register type nRegs=1
;; 	2135 left AOP_REG
;; >>> /home/sdcc-builder/build/sdcc-build/orig/sdcc/src/pic14/gen.c:2143:genCall
;; ***	popRegFromIdx,1042  , rIdx=0x7f
	MOVWF	STK00
;;; /home/sdcc-builder/build/sdcc-build/orig/sdcc/src/pic14/gen.c:1343:mov2w_op *{*
;; ***	mov2w  1381  offset=0
;; >>> /home/sdcc-builder/build/sdcc-build/orig/sdcc/src/pic14/gen.c:1386:mov2w
;;	1109 rIdx = r0x1048 
	BANKSEL	r0x1025
	MOVF	r0x1025,W
;; >>> /home/sdcc-builder/build/sdcc-build/orig/sdcc/src/pic14/gen.c:2175:genCall
	CALL	_SSD_Out
;;; /home/sdcc-builder/build/sdcc-build/orig/sdcc/src/pic14/gen.c:1845:unsaveRegisters *{*
;; ***	unsaveRegisters  1847
;;; /home/sdcc-builder/build/sdcc-build/orig/sdcc/src/pic14/gen.c:2316:resultRemat *{*
;;; /home/sdcc-builder/build/sdcc-build/orig/sdcc/src/pic14/gen.c:3547:genCmpGt *{*
;; ***	genCmpGt  3548
;;	694 register type nRegs=1
;;; /home/sdcc-builder/build/sdcc-build/orig/sdcc/src/pic14/gen.c:3294:genCmp *{*
;;swapping arguments (AOP_TYPEs 1/2)
;;unsigned compare: left >= lit(0x4=4), size=1
;; >>> /home/sdcc-builder/build/sdcc-build/orig/sdcc/src/pic14/gen.c:3265:pic14_mov2w_regOrLit
	.line	47; "SSD.c"	switch (ssd)
	MOVLW	0x04
;; >>> /home/sdcc-builder/build/sdcc-build/orig/sdcc/src/pic14/gen.c:3432:genCmp
;;	1109 rIdx = r0x1048 
	BANKSEL	r0x1025
	SUBWF	r0x1025,W
;;; /home/sdcc-builder/build/sdcc-build/orig/sdcc/src/pic14/gen.c:3237:genSkipc *{*
;; >>> /home/sdcc-builder/build/sdcc-build/orig/sdcc/src/pic14/gen.c:3242:genSkipc
	BTFSC	STATUS,0
;; >>> /home/sdcc-builder/build/sdcc-build/orig/sdcc/src/pic14/gen.c:3246:genSkipc
;; ***	popGetLabel  key=6, label offset 4
	GOTO	_00110_DS_
;;genSkipc:3247: created from rifx:027A5DF4
;;; /home/sdcc-builder/build/sdcc-build/orig/sdcc/src/pic14/gen.c:2316:resultRemat *{*
;;; /home/sdcc-builder/build/sdcc-build/orig/sdcc/src/pic14/gen.c:2316:resultRemat *{*
;;; /home/sdcc-builder/build/sdcc-build/orig/sdcc/src/pic14/gen.c:7071:genJumpTab *{*
;; ***	genJumpTab  7072
;;	694 register type nRegs=1
;; >>> /home/sdcc-builder/build/sdcc-build/orig/sdcc/src/pic14/gen.c:7087:genJumpTab
;; ***	popGetLabel  key=13, label offset 4
	MOVLW	HIGH(_00117_DS_)
;; >>> /home/sdcc-builder/build/sdcc-build/orig/sdcc/src/pic14/gen.c:7088:genJumpTab
	BANKSEL	PCLATH
	MOVWF	PCLATH
;; >>> /home/sdcc-builder/build/sdcc-build/orig/sdcc/src/pic14/gen.c:7089:genJumpTab
;; ***	popGetLabel  key=13, label offset 4
	MOVLW	_00117_DS_
;; >>> /home/sdcc-builder/build/sdcc-build/orig/sdcc/src/pic14/gen.c:7090:genJumpTab
;;	1109 rIdx = r0x1048 
	BANKSEL	r0x1025
	ADDWF	r0x1025,W
;; >>> /home/sdcc-builder/build/sdcc-build/orig/sdcc/src/pic14/gen.c:7091:genJumpTab
	BTFSS	STATUS,0
	GOTO	_00003_DS_
;; >>> /home/sdcc-builder/build/sdcc-build/orig/sdcc/src/pic14/gen.c:7092:genJumpTab
	BANKSEL	PCLATH
	INCF	PCLATH,F
;; >>> /home/sdcc-builder/build/sdcc-build/orig/sdcc/src/pic14/gen.c:7093:genJumpTab
_00003_DS_
	MOVWF	PCL
;; >>> /home/sdcc-builder/build/sdcc-build/orig/sdcc/src/pic14/gen.c:7102:genJumpTab
;; ***	popGetLabel  key=1, label offset 4
_00117_DS_
	GOTO	_00105_DS_
;; >>> /home/sdcc-builder/build/sdcc-build/orig/sdcc/src/pic14/gen.c:7102:genJumpTab
;; ***	popGetLabel  key=2, label offset 4
	GOTO	_00106_DS_
;; >>> /home/sdcc-builder/build/sdcc-build/orig/sdcc/src/pic14/gen.c:7102:genJumpTab
;; ***	popGetLabel  key=3, label offset 4
	GOTO	_00107_DS_
;; >>> /home/sdcc-builder/build/sdcc-build/orig/sdcc/src/pic14/gen.c:7102:genJumpTab
;; ***	popGetLabel  key=4, label offset 4
	GOTO	_00108_DS_
;;; /home/sdcc-builder/build/sdcc-build/orig/sdcc/src/pic14/gen.c:2316:resultRemat *{*
;;; /home/sdcc-builder/build/sdcc-build/orig/sdcc/src/pic14/gen.c:2760:genLabel *{*
;; ***	genLabel  2763
;;; /home/sdcc-builder/build/sdcc-build/orig/sdcc/src/pic14/gen.c:2316:resultRemat *{*
;;; /home/sdcc-builder/build/sdcc-build/orig/sdcc/src/pic14/gen.c:7120:genCast *{*
;; ***	genCast  7121
;; ***	aopForSym 315
;;	327 sym->rname = _TRISB, size = 1
;;	694 register type nRegs=1
;; 	line = 7129 result AOP_REG=r0x1049, size=1, left -=-, size=0, right AOP_DIR=_TRISB, size=1
;; ***	genCast  7253
;; >>> /home/sdcc-builder/build/sdcc-build/orig/sdcc/src/pic14/gen.c:7277:genCast
;;	1009
;;	1028  _TRISB   offset=0
_00105_DS_
	.line	50; "SSD.c"	GPIO_InitPortPin(SSD_MINUTES_UNITS_CR, SSD_MINUTES_UNITS_PIN, GPIO_OUT);
	BANKSEL	_TRISB
	MOVF	_TRISB,W
;; >>> /home/sdcc-builder/build/sdcc-build/orig/sdcc/src/pic14/gen.c:7278:genCast
;;	1109 rIdx = r0x1049 
	BANKSEL	r0x1026
	MOVWF	r0x1026
;;; /home/sdcc-builder/build/sdcc-build/orig/sdcc/src/pic14/gen.c:2316:resultRemat *{*
;;; /home/sdcc-builder/build/sdcc-build/orig/sdcc/src/pic14/gen.c:3919:genAnd *{*
;; ***	genAnd  3920
;;	694 register type nRegs=1
;; ***	aopForSym 315
;;	327 sym->rname = _TRISB, size = 1
;; 	line = 3955 result AOP_DIR=_TRISB, size=1, left AOP_REG=r0x1049, size=1, right AOP_LIT=0xef, size=1
;; >>> /home/sdcc-builder/build/sdcc-build/orig/sdcc/src/pic14/gen.c:4190:genAnd
	MOVLW	0xef
;; >>> /home/sdcc-builder/build/sdcc-build/orig/sdcc/src/pic14/gen.c:4191:genAnd
;;	1109 rIdx = r0x1049 
	ANDWF	r0x1026,W
;; >>> /home/sdcc-builder/build/sdcc-build/orig/sdcc/src/pic14/gen.c:4192:genAnd
;;	1009
;;	1028  _TRISB   offset=0
	BANKSEL	_TRISB
	MOVWF	_TRISB
;;; /home/sdcc-builder/build/sdcc-build/orig/sdcc/src/pic14/gen.c:2316:resultRemat *{*
;;; /home/sdcc-builder/build/sdcc-build/orig/sdcc/src/pic14/gen.c:2778:genGoto *{*
;; >>> /home/sdcc-builder/build/sdcc-build/orig/sdcc/src/pic14/gen.c:2780:genGoto
;; ***	popGetLabel  key=6, label offset 4
	.line	51; "SSD.c"	break;
	GOTO	_00110_DS_
;;; /home/sdcc-builder/build/sdcc-build/orig/sdcc/src/pic14/gen.c:2316:resultRemat *{*
;;; /home/sdcc-builder/build/sdcc-build/orig/sdcc/src/pic14/gen.c:2760:genLabel *{*
;; ***	genLabel  2763
;;; /home/sdcc-builder/build/sdcc-build/orig/sdcc/src/pic14/gen.c:2316:resultRemat *{*
;;; /home/sdcc-builder/build/sdcc-build/orig/sdcc/src/pic14/gen.c:7120:genCast *{*
;; ***	genCast  7121
;; ***	aopForSym 315
;;	327 sym->rname = _TRISB, size = 1
;;	694 register type nRegs=1
;; 	line = 7129 result AOP_REG=r0x1049, size=1, left -=-, size=0, right AOP_DIR=_TRISB, size=1
;; ***	genCast  7253
;; >>> /home/sdcc-builder/build/sdcc-build/orig/sdcc/src/pic14/gen.c:7277:genCast
;;	1009
;;	1028  _TRISB   offset=0
_00106_DS_
	.line	53; "SSD.c"	GPIO_InitPortPin(SSD_MINUTES_TENS_CR, SSD_MINUTES_TENS_PIN, GPIO_OUT);
	BANKSEL	_TRISB
	MOVF	_TRISB,W
;; >>> /home/sdcc-builder/build/sdcc-build/orig/sdcc/src/pic14/gen.c:7278:genCast
;;	1109 rIdx = r0x1049 
	BANKSEL	r0x1026
	MOVWF	r0x1026
;;; /home/sdcc-builder/build/sdcc-build/orig/sdcc/src/pic14/gen.c:2316:resultRemat *{*
;;; /home/sdcc-builder/build/sdcc-build/orig/sdcc/src/pic14/gen.c:3919:genAnd *{*
;; ***	genAnd  3920
;;	694 register type nRegs=1
;; ***	aopForSym 315
;;	327 sym->rname = _TRISB, size = 1
;; 	line = 3955 result AOP_DIR=_TRISB, size=1, left AOP_REG=r0x1049, size=1, right AOP_LIT=0xdf, size=1
;; >>> /home/sdcc-builder/build/sdcc-build/orig/sdcc/src/pic14/gen.c:4190:genAnd
	MOVLW	0xdf
;; >>> /home/sdcc-builder/build/sdcc-build/orig/sdcc/src/pic14/gen.c:4191:genAnd
;;	1109 rIdx = r0x1049 
	ANDWF	r0x1026,W
;; >>> /home/sdcc-builder/build/sdcc-build/orig/sdcc/src/pic14/gen.c:4192:genAnd
;;	1009
;;	1028  _TRISB   offset=0
	BANKSEL	_TRISB
	MOVWF	_TRISB
;;; /home/sdcc-builder/build/sdcc-build/orig/sdcc/src/pic14/gen.c:2316:resultRemat *{*
;;; /home/sdcc-builder/build/sdcc-build/orig/sdcc/src/pic14/gen.c:2778:genGoto *{*
;; >>> /home/sdcc-builder/build/sdcc-build/orig/sdcc/src/pic14/gen.c:2780:genGoto
;; ***	popGetLabel  key=6, label offset 4
	.line	54; "SSD.c"	break;
	GOTO	_00110_DS_
;;; /home/sdcc-builder/build/sdcc-build/orig/sdcc/src/pic14/gen.c:2316:resultRemat *{*
;;; /home/sdcc-builder/build/sdcc-build/orig/sdcc/src/pic14/gen.c:2760:genLabel *{*
;; ***	genLabel  2763
;;; /home/sdcc-builder/build/sdcc-build/orig/sdcc/src/pic14/gen.c:2316:resultRemat *{*
;;; /home/sdcc-builder/build/sdcc-build/orig/sdcc/src/pic14/gen.c:7120:genCast *{*
;; ***	genCast  7121
;; ***	aopForSym 315
;;	327 sym->rname = _TRISB, size = 1
;;	694 register type nRegs=1
;; 	line = 7129 result AOP_REG=r0x1049, size=1, left -=-, size=0, right AOP_DIR=_TRISB, size=1
;; ***	genCast  7253
;; >>> /home/sdcc-builder/build/sdcc-build/orig/sdcc/src/pic14/gen.c:7277:genCast
;;	1009
;;	1028  _TRISB   offset=0
_00107_DS_
	.line	56; "SSD.c"	GPIO_InitPortPin(SSD_HOURS_UNITS_CR, SSD_HOURS_UNITS_PIN, GPIO_OUT);
	BANKSEL	_TRISB
	MOVF	_TRISB,W
;; >>> /home/sdcc-builder/build/sdcc-build/orig/sdcc/src/pic14/gen.c:7278:genCast
;;	1109 rIdx = r0x1049 
	BANKSEL	r0x1026
	MOVWF	r0x1026
;;; /home/sdcc-builder/build/sdcc-build/orig/sdcc/src/pic14/gen.c:2316:resultRemat *{*
;;; /home/sdcc-builder/build/sdcc-build/orig/sdcc/src/pic14/gen.c:3919:genAnd *{*
;; ***	genAnd  3920
;;	694 register type nRegs=1
;; ***	aopForSym 315
;;	327 sym->rname = _TRISB, size = 1
;; 	line = 3955 result AOP_DIR=_TRISB, size=1, left AOP_REG=r0x1049, size=1, right AOP_LIT=0xbf, size=1
;; >>> /home/sdcc-builder/build/sdcc-build/orig/sdcc/src/pic14/gen.c:4190:genAnd
	MOVLW	0xbf
;; >>> /home/sdcc-builder/build/sdcc-build/orig/sdcc/src/pic14/gen.c:4191:genAnd
;;	1109 rIdx = r0x1049 
	ANDWF	r0x1026,W
;; >>> /home/sdcc-builder/build/sdcc-build/orig/sdcc/src/pic14/gen.c:4192:genAnd
;;	1009
;;	1028  _TRISB   offset=0
	BANKSEL	_TRISB
	MOVWF	_TRISB
;;; /home/sdcc-builder/build/sdcc-build/orig/sdcc/src/pic14/gen.c:2316:resultRemat *{*
;;; /home/sdcc-builder/build/sdcc-build/orig/sdcc/src/pic14/gen.c:2778:genGoto *{*
;; >>> /home/sdcc-builder/build/sdcc-build/orig/sdcc/src/pic14/gen.c:2780:genGoto
;; ***	popGetLabel  key=6, label offset 4
	.line	57; "SSD.c"	break;
	GOTO	_00110_DS_
;;; /home/sdcc-builder/build/sdcc-build/orig/sdcc/src/pic14/gen.c:2316:resultRemat *{*
;;; /home/sdcc-builder/build/sdcc-build/orig/sdcc/src/pic14/gen.c:2760:genLabel *{*
;; ***	genLabel  2763
;;; /home/sdcc-builder/build/sdcc-build/orig/sdcc/src/pic14/gen.c:2316:resultRemat *{*
;;; /home/sdcc-builder/build/sdcc-build/orig/sdcc/src/pic14/gen.c:7120:genCast *{*
;; ***	genCast  7121
;; ***	aopForSym 315
;;	327 sym->rname = _TRISB, size = 1
;;	694 register type nRegs=1
;; 	line = 7129 result AOP_REG=r0x1049, size=1, left -=-, size=0, right AOP_DIR=_TRISB, size=1
;; ***	genCast  7253
;; >>> /home/sdcc-builder/build/sdcc-build/orig/sdcc/src/pic14/gen.c:7277:genCast
;;	1009
;;	1028  _TRISB   offset=0
_00108_DS_
	.line	59; "SSD.c"	GPIO_InitPortPin(SSD_HOURS_TENS_CR, SSD_HOURS_TENS_PIN, GPIO_OUT);
	BANKSEL	_TRISB
	MOVF	_TRISB,W
;; >>> /home/sdcc-builder/build/sdcc-build/orig/sdcc/src/pic14/gen.c:7278:genCast
;;	1109 rIdx = r0x1049 
	BANKSEL	r0x1026
	MOVWF	r0x1026
;;; /home/sdcc-builder/build/sdcc-build/orig/sdcc/src/pic14/gen.c:2316:resultRemat *{*
;;; /home/sdcc-builder/build/sdcc-build/orig/sdcc/src/pic14/gen.c:3919:genAnd *{*
;; ***	genAnd  3920
;;	694 register type nRegs=1
;; ***	aopForSym 315
;;	327 sym->rname = _TRISB, size = 1
;; 	line = 3955 result AOP_DIR=_TRISB, size=1, left AOP_REG=r0x1049, size=1, right AOP_LIT=0x7f, size=1
;; >>> /home/sdcc-builder/build/sdcc-build/orig/sdcc/src/pic14/gen.c:4190:genAnd
	MOVLW	0x7f
;; >>> /home/sdcc-builder/build/sdcc-build/orig/sdcc/src/pic14/gen.c:4191:genAnd
;;	1109 rIdx = r0x1049 
	ANDWF	r0x1026,W
;; >>> /home/sdcc-builder/build/sdcc-build/orig/sdcc/src/pic14/gen.c:4192:genAnd
;;	1009
;;	1028  _TRISB   offset=0
	BANKSEL	_TRISB
	MOVWF	_TRISB
;;; /home/sdcc-builder/build/sdcc-build/orig/sdcc/src/pic14/gen.c:2316:resultRemat *{*
;;; /home/sdcc-builder/build/sdcc-build/orig/sdcc/src/pic14/gen.c:2760:genLabel *{*
;; ***	genLabel  2763
;;; /home/sdcc-builder/build/sdcc-build/orig/sdcc/src/pic14/gen.c:2316:resultRemat *{*
;;; /home/sdcc-builder/build/sdcc-build/orig/sdcc/src/pic14/gen.c:2316:resultRemat *{*
;;; /home/sdcc-builder/build/sdcc-build/orig/sdcc/src/pic14/gen.c:2316:resultRemat *{*
;;; /home/sdcc-builder/build/sdcc-build/orig/sdcc/src/pic14/gen.c:2086:genCall *{*
;; ***	genCall  2088
;;; /home/sdcc-builder/build/sdcc-build/orig/sdcc/src/pic14/gen.c:1801:saveRegisters *{*
;; ***	saveRegisters  1803
;;	694 register type nRegs=1
;; 	2135 left AOP_LIT
;;; /home/sdcc-builder/build/sdcc-build/orig/sdcc/src/pic14/gen.c:1343:mov2w_op *{*
;; >>> /home/sdcc-builder/build/sdcc-build/orig/sdcc/src/pic14/gen.c:1361:mov2w_op
_00110_DS_
	.line	65; "SSD.c"	SSD_SetState(ssd, SSD_OFF);
	MOVLW	0x00
;;	694 register type nRegs=1
;; 	2135 left AOP_REG
;; >>> /home/sdcc-builder/build/sdcc-build/orig/sdcc/src/pic14/gen.c:2143:genCall
;; ***	popRegFromIdx,1042  , rIdx=0x7f
	MOVWF	STK00
;;; /home/sdcc-builder/build/sdcc-build/orig/sdcc/src/pic14/gen.c:1343:mov2w_op *{*
;; ***	mov2w  1381  offset=0
;; >>> /home/sdcc-builder/build/sdcc-build/orig/sdcc/src/pic14/gen.c:1386:mov2w
;;	1109 rIdx = r0x1048 
	BANKSEL	r0x1025
	MOVF	r0x1025,W
;; >>> /home/sdcc-builder/build/sdcc-build/orig/sdcc/src/pic14/gen.c:2173:genCall
	PAGESEL	_SSD_SetState
;; >>> /home/sdcc-builder/build/sdcc-build/orig/sdcc/src/pic14/gen.c:2175:genCall
	CALL	_SSD_SetState
;; >>> /home/sdcc-builder/build/sdcc-build/orig/sdcc/src/pic14/gen.c:2181:genCall
	PAGESEL	$
;;; /home/sdcc-builder/build/sdcc-build/orig/sdcc/src/pic14/gen.c:1845:unsaveRegisters *{*
;; ***	unsaveRegisters  1847
;;; /home/sdcc-builder/build/sdcc-build/orig/sdcc/src/pic14/gen.c:2316:resultRemat *{*
;;; /home/sdcc-builder/build/sdcc-build/orig/sdcc/src/pic14/gen.c:2760:genLabel *{*
;; ***	genLabel  2763
;;; /home/sdcc-builder/build/sdcc-build/orig/sdcc/src/pic14/gen.c:2316:resultRemat *{*
;;; /home/sdcc-builder/build/sdcc-build/orig/sdcc/src/pic14/gen.c:2528:genEndFunction *{*
;; ***	genEndFunction  2530
	RETURN	
; exit point of _SSD_Init
;;; /home/sdcc-builder/build/sdcc-build/orig/sdcc/src/pic14/gen.c:7426:genpic14Code *{*


;	code size estimation:
;	  291+   80 =   371 instructions (  902 byte)

	end
